                              1 ;--------------------------------------------------------
                              2 ; File Created by SDCC : free open source ANSI-C Compiler
                              3 ; Version 3.3.0 #8604 (May 11 2013) (MINGW32)
                              4 ; This file was generated Thu Sep 26 21:26:14 2013
                              5 ;--------------------------------------------------------
                              6 	.module ramon
                              7 	.optsdcc -mz80
                              8 	
                              9 ;--------------------------------------------------------
                             10 ; Public variables in this module
                             11 ;--------------------------------------------------------
                             12 	.globl _main
                             13 	.globl _ShowMenu
                             14 	.globl _Game
                             15 	.globl _GameOver
                             16 	.globl _MoveCamion
                             17 	.globl _MovePolicias
                             18 	.globl _MoveBolsa
                             19 	.globl _MovePlayer
                             20 	.globl _InitGame
                             21 	.globl _initPaleta
                             22 	.globl _InitMode1
                             23 	.globl _InitMode0
                             24 	.globl _SetCursor
                             25 	.globl _SetMode
                             26 	.globl _SetColor
                             27 	.globl _DrawTile
                             28 	.globl _PutSpriteMode0Trans
                             29 	.globl _PutSpriteMode0
                             30 	.globl _GetChar
                             31 	.globl _GetTime
                             32 	.globl _printf
                             33 	.globl _nGetChar
                             34 	.globl _char4
                             35 	.globl _char3
                             36 	.globl _aCamion
                             37 	.globl _aPoli3
                             38 	.globl _aPoli2
                             39 	.globl _aPoli1
                             40 	.globl _aBolsa
                             41 	.globl _aPlayer
                             42 	.globl _aBackgroundTiles
                             43 	.globl __eTileType
                             44 	.globl _globalTimer
                             45 	.globl _Palette
                             46 	.globl _SpritePuerta4
                             47 	.globl _SpritePuerta3
                             48 	.globl _SpritePuerta2
                             49 	.globl _SpritePuerta1
                             50 	.globl _SpriteCarretera
                             51 	.globl _SpriteCamion6
                             52 	.globl _SpriteCamion5
                             53 	.globl _SpriteCamion4
                             54 	.globl _SpriteCamion3
                             55 	.globl _SpriteCamion2
                             56 	.globl _SpriteCamion1
                             57 	.globl _SpriteLadron1_2
                             58 	.globl _SpriteLadron1_1
                             59 	.globl _SpriteBolsa
                             60 	.globl _SpritePoliF2
                             61 	.globl _SpritePoliF1
                             62 	.globl _SpritePlayerF2
                             63 	.globl _SpritePlayerF1
                             64 	.globl _SpriteLadrillo
                             65 	.globl _SpriteBanco
                             66 ;--------------------------------------------------------
                             67 ; special function registers
                             68 ;--------------------------------------------------------
                             69 ;--------------------------------------------------------
                             70 ; ram data
                             71 ;--------------------------------------------------------
                             72 	.area _DATA
   0000                      73 _globalTimer::
   0000                      74 	.ds 1
   0001                      75 __eTileType::
   0001                      76 	.ds 1
   0002                      77 _aBackgroundTiles::
   0002                      78 	.ds 400
   0192                      79 _aPlayer::
   0192                      80 	.ds 6
   0198                      81 _aBolsa::
   0198                      82 	.ds 4
   019C                      83 _aPoli1::
   019C                      84 	.ds 4
   01A0                      85 _aPoli2::
   01A0                      86 	.ds 4
   01A4                      87 _aPoli3::
   01A4                      88 	.ds 4
   01A8                      89 _aCamion::
   01A8                      90 	.ds 12
   01B4                      91 _char3::
   01B4                      92 	.ds 1
   01B5                      93 _char4::
   01B5                      94 	.ds 1
   01B6                      95 _nGetChar::
   01B6                      96 	.ds 1
                             97 ;--------------------------------------------------------
                             98 ; ram data
                             99 ;--------------------------------------------------------
                            100 	.area _INITIALIZED
                            101 ;--------------------------------------------------------
                            102 ; absolute external ram data
                            103 ;--------------------------------------------------------
                            104 	.area _DABS (ABS)
                            105 ;--------------------------------------------------------
                            106 ; global & static initialisations
                            107 ;--------------------------------------------------------
                            108 	.area _HOME
                            109 	.area _GSINIT
                            110 	.area _GSFINAL
                            111 	.area _GSINIT
                            112 ;--------------------------------------------------------
                            113 ; Home
                            114 ;--------------------------------------------------------
                            115 	.area _HOME
                            116 	.area _HOME
                            117 ;--------------------------------------------------------
                            118 ; code
                            119 ;--------------------------------------------------------
                            120 	.area _CODE
                            121 ;ramon.c:90: unsigned int GetTime()
                            122 ;	---------------------------------
                            123 ; Function GetTime
                            124 ; ---------------------------------
   0000                     125 _GetTime_start::
   0000                     126 _GetTime:
                            127 ;ramon.c:102: __endasm;
   0000 CD 0D BD      [17]  128 	CALL #0xBD0D ;KL TIME PLEASE
   0003 E5            [11]  129 	PUSH HL
   0004 D1            [10]  130 	POP DE
   0005 21rB4r01      [10]  131 	LD HL, #_char3
   0008 72            [ 7]  132 	LD (HL), D
   0009 21rB5r01      [10]  133 	LD HL, #_char4
   000C 73            [ 7]  134 	LD (HL), E
                            135 ;ramon.c:104: nTime = (char3 << 8) + char4;
   000D 21rB4r01      [10]  136 	ld	hl,#_char3 + 0
   0010 46            [ 7]  137 	ld	b, (hl)
   0011 0E 00         [ 7]  138 	ld	c,#0x00
   0013 21rB5r01      [10]  139 	ld	hl,#_char4 + 0
   0016 5E            [ 7]  140 	ld	e, (hl)
   0017 16 00         [ 7]  141 	ld	d,#0x00
   0019 79            [ 4]  142 	ld	a,c
   001A 83            [ 4]  143 	add	a, e
   001B 4F            [ 4]  144 	ld	c,a
   001C 78            [ 4]  145 	ld	a,b
   001D 8A            [ 4]  146 	adc	a, d
   001E 47            [ 4]  147 	ld	b,a
   001F 69            [ 4]  148 	ld	l, c
   0020 60            [ 4]  149 	ld	h, b
                            150 ;ramon.c:106: return nTime;
   0021 C9            [10]  151 	ret
   0022                     152 _GetTime_end::
   0022                     153 _SpriteBanco:
   0022 00                  154 	.db #0x00	;  0
   0023 00                  155 	.db #0x00	;  0
   0024 00                  156 	.db #0x00	;  0
   0025 00                  157 	.db #0x00	;  0
   0026 00                  158 	.db #0x00	;  0
   0027 00                  159 	.db #0x00	;  0
   0028 00                  160 	.db #0x00	;  0
   0029 00                  161 	.db #0x00	;  0
   002A 00                  162 	.db #0x00	;  0
   002B 00                  163 	.db #0x00	;  0
   002C 00                  164 	.db #0x00	;  0
   002D 00                  165 	.db #0x00	;  0
   002E 00                  166 	.db #0x00	;  0
   002F 00                  167 	.db #0x00	;  0
   0030 00                  168 	.db #0x00	;  0
   0031 00                  169 	.db #0x00	;  0
   0032 00                  170 	.db #0x00	;  0
   0033 00                  171 	.db #0x00	;  0
   0034 00                  172 	.db #0x00	;  0
   0035 00                  173 	.db #0x00	;  0
   0036 00                  174 	.db #0x00	;  0
   0037 00                  175 	.db #0x00	;  0
   0038 00                  176 	.db #0x00	;  0
   0039 00                  177 	.db #0x00	;  0
   003A 00                  178 	.db #0x00	;  0
   003B 00                  179 	.db #0x00	;  0
   003C 00                  180 	.db #0x00	;  0
   003D 00                  181 	.db #0x00	;  0
   003E 00                  182 	.db #0x00	;  0
   003F 00                  183 	.db #0x00	;  0
   0040 00                  184 	.db #0x00	;  0
   0041 00                  185 	.db #0x00	;  0
   0042 00                  186 	.db #0x00	;  0
   0043 00                  187 	.db #0x00	;  0
   0044 00                  188 	.db #0x00	;  0
   0045 00                  189 	.db #0x00	;  0
   0046 00                  190 	.db #0x00	;  0
   0047 00                  191 	.db #0x00	;  0
   0048 00                  192 	.db #0x00	;  0
   0049 00                  193 	.db #0x00	;  0
   004A                     194 _SpriteLadrillo:
   004A 03                  195 	.db #0x03	;  3
   004B 43                  196 	.db #0x43	;  67	'C'
   004C 03                  197 	.db #0x03	;  3
   004D 43                  198 	.db #0x43	;  67	'C'
   004E 03                  199 	.db #0x03	;  3
   004F 43                  200 	.db #0x43	;  67	'C'
   0050 03                  201 	.db #0x03	;  3
   0051 43                  202 	.db #0x43	;  67	'C'
   0052 03                  203 	.db #0x03	;  3
   0053 43                  204 	.db #0x43	;  67	'C'
   0054 03                  205 	.db #0x03	;  3
   0055 43                  206 	.db #0x43	;  67	'C'
   0056 03                  207 	.db #0x03	;  3
   0057 43                  208 	.db #0x43	;  67	'C'
   0058 03                  209 	.db #0x03	;  3
   0059 43                  210 	.db #0x43	;  67	'C'
   005A C3                  211 	.db #0xC3	; -61
   005B C3                  212 	.db #0xC3	; -61
   005C C3                  213 	.db #0xC3	; -61
   005D C3                  214 	.db #0xC3	; -61
   005E 43                  215 	.db #0x43	;  67	'C'
   005F 03                  216 	.db #0x03	;  3
   0060 43                  217 	.db #0x43	;  67	'C'
   0061 03                  218 	.db #0x03	;  3
   0062 43                  219 	.db #0x43	;  67	'C'
   0063 03                  220 	.db #0x03	;  3
   0064 43                  221 	.db #0x43	;  67	'C'
   0065 03                  222 	.db #0x03	;  3
   0066 43                  223 	.db #0x43	;  67	'C'
   0067 03                  224 	.db #0x03	;  3
   0068 43                  225 	.db #0x43	;  67	'C'
   0069 03                  226 	.db #0x03	;  3
   006A 43                  227 	.db #0x43	;  67	'C'
   006B 03                  228 	.db #0x03	;  3
   006C 43                  229 	.db #0x43	;  67	'C'
   006D 03                  230 	.db #0x03	;  3
   006E C3                  231 	.db #0xC3	; -61
   006F C3                  232 	.db #0xC3	; -61
   0070 C3                  233 	.db #0xC3	; -61
   0071 C3                  234 	.db #0xC3	; -61
   0072                     235 _SpritePlayerF1:
   0072 01                  236 	.db #0x01	;  1
   0073 81                  237 	.db #0x81	; -127
   0074 81                  238 	.db #0x81	; -127
   0075 80                  239 	.db #0x80	; -128
   0076 51                  240 	.db #0x51	;  81	'Q'
   0077 F3                  241 	.db #0xF3	; -13
   0078 F3                  242 	.db #0xF3	; -13
   0079 A2                  243 	.db #0xA2	; -94
   007A 51                  244 	.db #0x51	;  81	'Q'
   007B D1                  245 	.db #0xD1	; -47
   007C E2                  246 	.db #0xE2	; -30
   007D A2                  247 	.db #0xA2	; -94
   007E 51                  248 	.db #0x51	;  81	'Q'
   007F F3                  249 	.db #0xF3	; -13
   0080 F3                  250 	.db #0xF3	; -13
   0081 A2                  251 	.db #0xA2	; -94
   0082 44                  252 	.db #0x44	;  68	'D'
   0083 CC                  253 	.db #0xCC	; -52
   0084 CC                  254 	.db #0xCC	; -52
   0085 88                  255 	.db #0x88	; -120
   0086 CC                  256 	.db #0xCC	; -52
   0087 F3                  257 	.db #0xF3	; -13
   0088 F3                  258 	.db #0xF3	; -13
   0089 CC                  259 	.db #0xCC	; -52
   008A 88                  260 	.db #0x88	; -120
   008B CC                  261 	.db #0xCC	; -52
   008C CC                  262 	.db #0xCC	; -52
   008D 44                  263 	.db #0x44	;  68	'D'
   008E A2                  264 	.db #0xA2	; -94
   008F F3                  265 	.db #0xF3	; -13
   0090 F3                  266 	.db #0xF3	; -13
   0091 51                  267 	.db #0x51	;  81	'Q'
   0092 00                  268 	.db #0x00	;  0
   0093 44                  269 	.db #0x44	;  68	'D'
   0094 88                  270 	.db #0x88	; -120
   0095 00                  271 	.db #0x00	;  0
   0096 00                  272 	.db #0x00	;  0
   0097 C3                  273 	.db #0xC3	; -61
   0098 C3                  274 	.db #0xC3	; -61
   0099 00                  275 	.db #0x00	;  0
   009A                     276 _SpritePlayerF2:
   009A 01                  277 	.db #0x01	;  1
   009B 81                  278 	.db #0x81	; -127
   009C 81                  279 	.db #0x81	; -127
   009D 80                  280 	.db #0x80	; -128
   009E 51                  281 	.db #0x51	;  81	'Q'
   009F F3                  282 	.db #0xF3	; -13
   00A0 F3                  283 	.db #0xF3	; -13
   00A1 A2                  284 	.db #0xA2	; -94
   00A2 51                  285 	.db #0x51	;  81	'Q'
   00A3 D1                  286 	.db #0xD1	; -47
   00A4 E2                  287 	.db #0xE2	; -30
   00A5 A2                  288 	.db #0xA2	; -94
   00A6 51                  289 	.db #0x51	;  81	'Q'
   00A7 F3                  290 	.db #0xF3	; -13
   00A8 F3                  291 	.db #0xF3	; -13
   00A9 A2                  292 	.db #0xA2	; -94
   00AA 44                  293 	.db #0x44	;  68	'D'
   00AB CC                  294 	.db #0xCC	; -52
   00AC CC                  295 	.db #0xCC	; -52
   00AD 88                  296 	.db #0x88	; -120
   00AE CC                  297 	.db #0xCC	; -52
   00AF F3                  298 	.db #0xF3	; -13
   00B0 F3                  299 	.db #0xF3	; -13
   00B1 CC                  300 	.db #0xCC	; -52
   00B2 88                  301 	.db #0x88	; -120
   00B3 CC                  302 	.db #0xCC	; -52
   00B4 CC                  303 	.db #0xCC	; -52
   00B5 44                  304 	.db #0x44	;  68	'D'
   00B6 A2                  305 	.db #0xA2	; -94
   00B7 F3                  306 	.db #0xF3	; -13
   00B8 F3                  307 	.db #0xF3	; -13
   00B9 51                  308 	.db #0x51	;  81	'Q'
   00BA 00                  309 	.db #0x00	;  0
   00BB 88                  310 	.db #0x88	; -120
   00BC 44                  311 	.db #0x44	;  68	'D'
   00BD 00                  312 	.db #0x00	;  0
   00BE 41                  313 	.db #0x41	;  65	'A'
   00BF 82                  314 	.db #0x82	; -126
   00C0 41                  315 	.db #0x41	;  65	'A'
   00C1 82                  316 	.db #0x82	; -126
   00C2                     317 _SpritePoliF1:
   00C2 12                  318 	.db #0x12	;  18
   00C3 30                  319 	.db #0x30	;  48	'0'
   00C4 30                  320 	.db #0x30	;  48	'0'
   00C5 21                  321 	.db #0x21	;  33
   00C6 F3                  322 	.db #0xF3	; -13
   00C7 F3                  323 	.db #0xF3	; -13
   00C8 F3                  324 	.db #0xF3	; -13
   00C9 A3                  325 	.db #0xA3	; -93
   00CA 16                  326 	.db #0x16	;  22
   00CB B6                  327 	.db #0xB6	; -74
   00CC 79                  328 	.db #0x79	;  121	'y'
   00CD 29                  329 	.db #0x29	;  41
   00CE 16                  330 	.db #0x16	;  22
   00CF 3C                  331 	.db #0x3C	;  60
   00D0 3C                  332 	.db #0x3C	;  60
   00D1 79                  333 	.db #0x79	;  121	'y'
   00D2 12                  334 	.db #0x12	;  18
   00D3 30                  335 	.db #0x30	;  48	'0'
   00D4 30                  336 	.db #0x30	;  48	'0'
   00D5 30                  337 	.db #0x30	;  48	'0'
   00D6 30                  338 	.db #0x30	;  48	'0'
   00D7 30                  339 	.db #0x30	;  48	'0'
   00D8 98                  340 	.db #0x98	; -104
   00D9 30                  341 	.db #0x30	;  48	'0'
   00DA 21                  342 	.db #0x21	;  33
   00DB 30                  343 	.db #0x30	;  48	'0'
   00DC 30                  344 	.db #0x30	;  48	'0'
   00DD 12                  345 	.db #0x12	;  18
   00DE A3                  346 	.db #0xA3	; -93
   00DF F3                  347 	.db #0xF3	; -13
   00E0 F3                  348 	.db #0xF3	; -13
   00E1 03                  349 	.db #0x03	;  3
   00E2 03                  350 	.db #0x03	;  3
   00E3 53                  351 	.db #0x53	;  83	'S'
   00E4 A3                  352 	.db #0xA3	; -93
   00E5 03                  353 	.db #0x03	;  3
   00E6 C3                  354 	.db #0xC3	; -61
   00E7 30                  355 	.db #0x30	;  48	'0'
   00E8 30                  356 	.db #0x30	;  48	'0'
   00E9 C3                  357 	.db #0xC3	; -61
   00EA                     358 _SpritePoliF2:
   00EA 12                  359 	.db #0x12	;  18
   00EB 30                  360 	.db #0x30	;  48	'0'
   00EC 30                  361 	.db #0x30	;  48	'0'
   00ED 21                  362 	.db #0x21	;  33
   00EE F3                  363 	.db #0xF3	; -13
   00EF F3                  364 	.db #0xF3	; -13
   00F0 F3                  365 	.db #0xF3	; -13
   00F1 A3                  366 	.db #0xA3	; -93
   00F2 16                  367 	.db #0x16	;  22
   00F3 B6                  368 	.db #0xB6	; -74
   00F4 79                  369 	.db #0x79	;  121	'y'
   00F5 29                  370 	.db #0x29	;  41
   00F6 B6                  371 	.db #0xB6	; -74
   00F7 3C                  372 	.db #0x3C	;  60
   00F8 3C                  373 	.db #0x3C	;  60
   00F9 29                  374 	.db #0x29	;  41
   00FA 30                  375 	.db #0x30	;  48	'0'
   00FB 30                  376 	.db #0x30	;  48	'0'
   00FC 30                  377 	.db #0x30	;  48	'0'
   00FD 21                  378 	.db #0x21	;  33
   00FE 30                  379 	.db #0x30	;  48	'0'
   00FF 30                  380 	.db #0x30	;  48	'0'
   0100 98                  381 	.db #0x98	; -104
   0101 30                  382 	.db #0x30	;  48	'0'
   0102 21                  383 	.db #0x21	;  33
   0103 30                  384 	.db #0x30	;  48	'0'
   0104 30                  385 	.db #0x30	;  48	'0'
   0105 12                  386 	.db #0x12	;  18
   0106 03                  387 	.db #0x03	;  3
   0107 F3                  388 	.db #0xF3	; -13
   0108 F3                  389 	.db #0xF3	; -13
   0109 53                  390 	.db #0x53	;  83	'S'
   010A 03                  391 	.db #0x03	;  3
   010B A3                  392 	.db #0xA3	; -93
   010C 53                  393 	.db #0x53	;  83	'S'
   010D 03                  394 	.db #0x03	;  3
   010E 92                  395 	.db #0x92	; -110
   010F 61                  396 	.db #0x61	;  97	'a'
   0110 92                  397 	.db #0x92	; -110
   0111 61                  398 	.db #0x61	;  97	'a'
   0112                     399 _SpriteBolsa:
   0112 00                  400 	.db #0x00	;  0
   0113 14                  401 	.db #0x14	;  20
   0114 28                  402 	.db #0x28	;  40
   0115 00                  403 	.db #0x00	;  0
   0116 00                  404 	.db #0x00	;  0
   0117 28                  405 	.db #0x28	;  40
   0118 3C                  406 	.db #0x3C	;  60
   0119 00                  407 	.db #0x00	;  0
   011A 14                  408 	.db #0x14	;  20
   011B 79                  409 	.db #0x79	;  121	'y'
   011C B6                  410 	.db #0xB6	; -74
   011D 28                  411 	.db #0x28	;  40
   011E 3C                  412 	.db #0x3C	;  60
   011F A2                  413 	.db #0xA2	; -94
   0120 79                  414 	.db #0x79	;  121	'y'
   0121 3C                  415 	.db #0x3C	;  60
   0122 3C                  416 	.db #0x3C	;  60
   0123 A2                  417 	.db #0xA2	; -94
   0124 3C                  418 	.db #0x3C	;  60
   0125 3C                  419 	.db #0x3C	;  60
   0126 3C                  420 	.db #0x3C	;  60
   0127 79                  421 	.db #0x79	;  121	'y'
   0128 B6                  422 	.db #0xB6	; -74
   0129 3C                  423 	.db #0x3C	;  60
   012A 3C                  424 	.db #0x3C	;  60
   012B 28                  425 	.db #0x28	;  40
   012C 79                  426 	.db #0x79	;  121	'y'
   012D 3C                  427 	.db #0x3C	;  60
   012E 3C                  428 	.db #0x3C	;  60
   012F A2                  429 	.db #0xA2	; -94
   0130 79                  430 	.db #0x79	;  121	'y'
   0131 3C                  431 	.db #0x3C	;  60
   0132 14                  432 	.db #0x14	;  20
   0133 79                  433 	.db #0x79	;  121	'y'
   0134 B6                  434 	.db #0xB6	; -74
   0135 28                  435 	.db #0x28	;  40
   0136 00                  436 	.db #0x00	;  0
   0137 28                  437 	.db #0x28	;  40
   0138 3C                  438 	.db #0x3C	;  60
   0139 00                  439 	.db #0x00	;  0
   013A                     440 _SpriteLadron1_1:
   013A 3F                  441 	.db #0x3F	;  63
   013B C0                  442 	.db #0xC0	; -64
   013C C0                  443 	.db #0xC0	; -64
   013D 3F                  444 	.db #0x3F	;  63
   013E 3F                  445 	.db #0x3F	;  63
   013F 84                  446 	.db #0x84	; -124
   0140 48                  447 	.db #0x48	;  72	'H'
   0141 3F                  448 	.db #0x3F	;  63
   0142 3F                  449 	.db #0x3F	;  63
   0143 C0                  450 	.db #0xC0	; -64
   0144 C0                  451 	.db #0xC0	; -64
   0145 3F                  452 	.db #0x3F	;  63
   0146 3F                  453 	.db #0x3F	;  63
   0147 C0                  454 	.db #0xC0	; -64
   0148 C0                  455 	.db #0xC0	; -64
   0149 3F                  456 	.db #0x3F	;  63
   014A 3F                  457 	.db #0x3F	;  63
   014B 6A                  458 	.db #0x6A	;  106	'j'
   014C 95                  459 	.db #0x95	; -107
   014D 3F                  460 	.db #0x3F	;  63
   014E 3F                  461 	.db #0x3F	;  63
   014F 80                  462 	.db #0x80	; -128
   0150 40                  463 	.db #0x40	;  64
   0151 3F                  464 	.db #0x3F	;  63
   0152 6A                  465 	.db #0x6A	;  106	'j'
   0153 6A                  466 	.db #0x6A	;  106	'j'
   0154 95                  467 	.db #0x95	; -107
   0155 95                  468 	.db #0x95	; -107
   0156 3F                  469 	.db #0x3F	;  63
   0157 2A                  470 	.db #0x2A	;  42
   0158 40                  471 	.db #0x40	;  64
   0159 3F                  472 	.db #0x3F	;  63
   015A 3F                  473 	.db #0x3F	;  63
   015B C0                  474 	.db #0xC0	; -64
   015C C0                  475 	.db #0xC0	; -64
   015D 95                  476 	.db #0x95	; -107
   015E 6A                  477 	.db #0x6A	;  106	'j'
   015F 95                  478 	.db #0x95	; -107
   0160 3F                  479 	.db #0x3F	;  63
   0161 3F                  480 	.db #0x3F	;  63
   0162                     481 _SpriteLadron1_2:
   0162 0C                  482 	.db #0x0C	;  12
   0163 C0                  483 	.db #0xC0	; -64
   0164 C0                  484 	.db #0xC0	; -64
   0165 0C                  485 	.db #0x0C	;  12
   0166 0C                  486 	.db #0x0C	;  12
   0167 84                  487 	.db #0x84	; -124
   0168 48                  488 	.db #0x48	;  72	'H'
   0169 0C                  489 	.db #0x0C	;  12
   016A 0C                  490 	.db #0x0C	;  12
   016B C0                  491 	.db #0xC0	; -64
   016C C0                  492 	.db #0xC0	; -64
   016D 0C                  493 	.db #0x0C	;  12
   016E 0C                  494 	.db #0x0C	;  12
   016F C0                  495 	.db #0xC0	; -64
   0170 C0                  496 	.db #0xC0	; -64
   0171 0C                  497 	.db #0x0C	;  12
   0172 0C                  498 	.db #0x0C	;  12
   0173 48                  499 	.db #0x48	;  72	'H'
   0174 84                  500 	.db #0x84	; -124
   0175 0C                  501 	.db #0x0C	;  12
   0176 0C                  502 	.db #0x0C	;  12
   0177 80                  503 	.db #0x80	; -128
   0178 40                  504 	.db #0x40	;  64
   0179 0C                  505 	.db #0x0C	;  12
   017A 48                  506 	.db #0x48	;  72	'H'
   017B 48                  507 	.db #0x48	;  72	'H'
   017C 84                  508 	.db #0x84	; -124
   017D 84                  509 	.db #0x84	; -124
   017E 0C                  510 	.db #0x0C	;  12
   017F 80                  511 	.db #0x80	; -128
   0180 04                  512 	.db #0x04	;  4
   0181 0C                  513 	.db #0x0C	;  12
   0182 48                  514 	.db #0x48	;  72	'H'
   0183 C0                  515 	.db #0xC0	; -64
   0184 C0                  516 	.db #0xC0	; -64
   0185 0C                  517 	.db #0x0C	;  12
   0186 0C                  518 	.db #0x0C	;  12
   0187 0C                  519 	.db #0x0C	;  12
   0188 48                  520 	.db #0x48	;  72	'H'
   0189 84                  521 	.db #0x84	; -124
   018A                     522 _SpriteCamion1:
   018A 00                  523 	.db #0x00	;  0
   018B 00                  524 	.db #0x00	;  0
   018C F3                  525 	.db #0xF3	; -13
   018D F3                  526 	.db #0xF3	; -13
   018E 00                  527 	.db #0x00	;  0
   018F 51                  528 	.db #0x51	;  81	'Q'
   0190 B2                  529 	.db #0xB2	; -78
   0191 F3                  530 	.db #0xF3	; -13
   0192 00                  531 	.db #0x00	;  0
   0193 F3                  532 	.db #0xF3	; -13
   0194 30                  533 	.db #0x30	;  48	'0'
   0195 F3                  534 	.db #0xF3	; -13
   0196 51                  535 	.db #0x51	;  81	'Q'
   0197 B2                  536 	.db #0xB2	; -78
   0198 30                  537 	.db #0x30	;  48	'0'
   0199 F3                  538 	.db #0xF3	; -13
   019A 51                  539 	.db #0x51	;  81	'Q'
   019B 30                  540 	.db #0x30	;  48	'0'
   019C 30                  541 	.db #0x30	;  48	'0'
   019D F3                  542 	.db #0xF3	; -13
   019E 51                  543 	.db #0x51	;  81	'Q'
   019F F3                  544 	.db #0xF3	; -13
   01A0 E2                  545 	.db #0xE2	; -30
   01A1 F3                  546 	.db #0xF3	; -13
   01A2 41                  547 	.db #0x41	;  65	'A'
   01A3 C3                  548 	.db #0xC3	; -61
   01A4 C3                  549 	.db #0xC3	; -61
   01A5 C3                  550 	.db #0xC3	; -61
   01A6 51                  551 	.db #0x51	;  81	'Q'
   01A7 F3                  552 	.db #0xF3	; -13
   01A8 F3                  553 	.db #0xF3	; -13
   01A9 F3                  554 	.db #0xF3	; -13
   01AA 51                  555 	.db #0x51	;  81	'Q'
   01AB F3                  556 	.db #0xF3	; -13
   01AC F3                  557 	.db #0xF3	; -13
   01AD F3                  558 	.db #0xF3	; -13
   01AE 51                  559 	.db #0x51	;  81	'Q'
   01AF F3                  560 	.db #0xF3	; -13
   01B0 F3                  561 	.db #0xF3	; -13
   01B1 F3                  562 	.db #0xF3	; -13
   01B2                     563 _SpriteCamion2:
   01B2 F3                  564 	.db #0xF3	; -13
   01B3 F3                  565 	.db #0xF3	; -13
   01B4 F3                  566 	.db #0xF3	; -13
   01B5 C3                  567 	.db #0xC3	; -61
   01B6 F3                  568 	.db #0xF3	; -13
   01B7 F3                  569 	.db #0xF3	; -13
   01B8 E3                  570 	.db #0xE3	; -29
   01B9 C3                  571 	.db #0xC3	; -61
   01BA F3                  572 	.db #0xF3	; -13
   01BB F3                  573 	.db #0xF3	; -13
   01BC C3                  574 	.db #0xC3	; -61
   01BD D3                  575 	.db #0xD3	; -45
   01BE F3                  576 	.db #0xF3	; -13
   01BF E3                  577 	.db #0xE3	; -29
   01C0 D3                  578 	.db #0xD3	; -45
   01C1 F3                  579 	.db #0xF3	; -13
   01C2 E3                  580 	.db #0xE3	; -29
   01C3 C3                  581 	.db #0xC3	; -61
   01C4 F3                  582 	.db #0xF3	; -13
   01C5 F3                  583 	.db #0xF3	; -13
   01C6 C3                  584 	.db #0xC3	; -61
   01C7 D3                  585 	.db #0xD3	; -45
   01C8 F3                  586 	.db #0xF3	; -13
   01C9 F3                  587 	.db #0xF3	; -13
   01CA D3                  588 	.db #0xD3	; -45
   01CB F3                  589 	.db #0xF3	; -13
   01CC F3                  590 	.db #0xF3	; -13
   01CD F3                  591 	.db #0xF3	; -13
   01CE F3                  592 	.db #0xF3	; -13
   01CF F3                  593 	.db #0xF3	; -13
   01D0 F3                  594 	.db #0xF3	; -13
   01D1 F3                  595 	.db #0xF3	; -13
   01D2 F3                  596 	.db #0xF3	; -13
   01D3 F3                  597 	.db #0xF3	; -13
   01D4 F3                  598 	.db #0xF3	; -13
   01D5 F3                  599 	.db #0xF3	; -13
   01D6 F3                  600 	.db #0xF3	; -13
   01D7 F3                  601 	.db #0xF3	; -13
   01D8 F3                  602 	.db #0xF3	; -13
   01D9 F3                  603 	.db #0xF3	; -13
   01DA                     604 _SpriteCamion3:
   01DA C3                  605 	.db #0xC3	; -61
   01DB C3                  606 	.db #0xC3	; -61
   01DC C3                  607 	.db #0xC3	; -61
   01DD 82                  608 	.db #0x82	; -126
   01DE C3                  609 	.db #0xC3	; -61
   01DF C3                  610 	.db #0xC3	; -61
   01E0 C3                  611 	.db #0xC3	; -61
   01E1 C3                  612 	.db #0xC3	; -61
   01E2 F3                  613 	.db #0xF3	; -13
   01E3 F3                  614 	.db #0xF3	; -13
   01E4 F3                  615 	.db #0xF3	; -13
   01E5 F3                  616 	.db #0xF3	; -13
   01E6 F3                  617 	.db #0xF3	; -13
   01E7 F3                  618 	.db #0xF3	; -13
   01E8 F3                  619 	.db #0xF3	; -13
   01E9 F3                  620 	.db #0xF3	; -13
   01EA F3                  621 	.db #0xF3	; -13
   01EB F3                  622 	.db #0xF3	; -13
   01EC F3                  623 	.db #0xF3	; -13
   01ED F3                  624 	.db #0xF3	; -13
   01EE F3                  625 	.db #0xF3	; -13
   01EF F3                  626 	.db #0xF3	; -13
   01F0 F3                  627 	.db #0xF3	; -13
   01F1 F3                  628 	.db #0xF3	; -13
   01F2 F3                  629 	.db #0xF3	; -13
   01F3 F3                  630 	.db #0xF3	; -13
   01F4 F3                  631 	.db #0xF3	; -13
   01F5 F3                  632 	.db #0xF3	; -13
   01F6 F3                  633 	.db #0xF3	; -13
   01F7 F3                  634 	.db #0xF3	; -13
   01F8 F3                  635 	.db #0xF3	; -13
   01F9 F3                  636 	.db #0xF3	; -13
   01FA F3                  637 	.db #0xF3	; -13
   01FB F3                  638 	.db #0xF3	; -13
   01FC A3                  639 	.db #0xA3	; -93
   01FD F3                  640 	.db #0xF3	; -13
   01FE F3                  641 	.db #0xF3	; -13
   01FF F3                  642 	.db #0xF3	; -13
   0200 A3                  643 	.db #0xA3	; -93
   0201 53                  644 	.db #0x53	;  83	'S'
   0202                     645 _SpriteCamion4:
   0202 CE                  646 	.db #0xCE	; -50
   0203 D9                  647 	.db #0xD9	; -39
   0204 F3                  648 	.db #0xF3	; -13
   0205 F3                  649 	.db #0xF3	; -13
   0206 CE                  650 	.db #0xCE	; -50
   0207 D9                  651 	.db #0xD9	; -39
   0208 F3                  652 	.db #0xF3	; -13
   0209 F3                  653 	.db #0xF3	; -13
   020A DB                  654 	.db #0xDB	; -37
   020B F3                  655 	.db #0xF3	; -13
   020C F3                  656 	.db #0xF3	; -13
   020D F3                  657 	.db #0xF3	; -13
   020E DB                  658 	.db #0xDB	; -37
   020F F3                  659 	.db #0xF3	; -13
   0210 F3                  660 	.db #0xF3	; -13
   0211 F3                  661 	.db #0xF3	; -13
   0212 DB                  662 	.db #0xDB	; -37
   0213 F3                  663 	.db #0xF3	; -13
   0214 E7                  664 	.db #0xE7	; -25
   0215 DB                  665 	.db #0xDB	; -37
   0216 CF                  666 	.db #0xCF	; -49
   0217 CF                  667 	.db #0xCF	; -49
   0218 CF                  668 	.db #0xCF	; -49
   0219 CF                  669 	.db #0xCF	; -49
   021A 00                  670 	.db #0x00	;  0
   021B CF                  671 	.db #0xCF	; -49
   021C C3                  672 	.db #0xC3	; -61
   021D C7                  673 	.db #0xC7	; -57
   021E 00                  674 	.db #0x00	;  0
   021F CF                  675 	.db #0xCF	; -49
   0220 C3                  676 	.db #0xC3	; -61
   0221 CF                  677 	.db #0xCF	; -49
   0222 00                  678 	.db #0x00	;  0
   0223 45                  679 	.db #0x45	;  69	'E'
   0224 CB                  680 	.db #0xCB	; -53
   0225 8A                  681 	.db #0x8A	; -118
   0226 00                  682 	.db #0x00	;  0
   0227 00                  683 	.db #0x00	;  0
   0228 CF                  684 	.db #0xCF	; -49
   0229 00                  685 	.db #0x00	;  0
   022A                     686 _SpriteCamion5:
   022A F3                  687 	.db #0xF3	; -13
   022B F3                  688 	.db #0xF3	; -13
   022C F3                  689 	.db #0xF3	; -13
   022D F3                  690 	.db #0xF3	; -13
   022E F3                  691 	.db #0xF3	; -13
   022F F3                  692 	.db #0xF3	; -13
   0230 F3                  693 	.db #0xF3	; -13
   0231 F3                  694 	.db #0xF3	; -13
   0232 F3                  695 	.db #0xF3	; -13
   0233 F3                  696 	.db #0xF3	; -13
   0234 F3                  697 	.db #0xF3	; -13
   0235 F3                  698 	.db #0xF3	; -13
   0236 F3                  699 	.db #0xF3	; -13
   0237 F3                  700 	.db #0xF3	; -13
   0238 F3                  701 	.db #0xF3	; -13
   0239 F3                  702 	.db #0xF3	; -13
   023A F3                  703 	.db #0xF3	; -13
   023B F3                  704 	.db #0xF3	; -13
   023C DB                  705 	.db #0xDB	; -37
   023D F3                  706 	.db #0xF3	; -13
   023E CF                  707 	.db #0xCF	; -49
   023F CF                  708 	.db #0xCF	; -49
   0240 CF                  709 	.db #0xCF	; -49
   0241 CF                  710 	.db #0xCF	; -49
   0242 00                  711 	.db #0x00	;  0
   0243 00                  712 	.db #0x00	;  0
   0244 00                  713 	.db #0x00	;  0
   0245 00                  714 	.db #0x00	;  0
   0246 00                  715 	.db #0x00	;  0
   0247 00                  716 	.db #0x00	;  0
   0248 00                  717 	.db #0x00	;  0
   0249 00                  718 	.db #0x00	;  0
   024A 00                  719 	.db #0x00	;  0
   024B 00                  720 	.db #0x00	;  0
   024C 00                  721 	.db #0x00	;  0
   024D 00                  722 	.db #0x00	;  0
   024E 00                  723 	.db #0x00	;  0
   024F 00                  724 	.db #0x00	;  0
   0250 00                  725 	.db #0x00	;  0
   0251 00                  726 	.db #0x00	;  0
   0252                     727 _SpriteCamion6:
   0252 F3                  728 	.db #0xF3	; -13
   0253 F3                  729 	.db #0xF3	; -13
   0254 A3                  730 	.db #0xA3	; -93
   0255 53                  731 	.db #0x53	;  83	'S'
   0256 F3                  732 	.db #0xF3	; -13
   0257 F3                  733 	.db #0xF3	; -13
   0258 46                  734 	.db #0x46	;  70	'F'
   0259 89                  735 	.db #0x89	; -119
   025A F3                  736 	.db #0xF3	; -13
   025B A3                  737 	.db #0xA3	; -93
   025C CC                  738 	.db #0xCC	; -52
   025D CC                  739 	.db #0xCC	; -52
   025E F3                  740 	.db #0xF3	; -13
   025F A3                  741 	.db #0xA3	; -93
   0260 CC                  742 	.db #0xCC	; -52
   0261 CC                  743 	.db #0xCC	; -52
   0262 CF                  744 	.db #0xCF	; -49
   0263 CF                  745 	.db #0xCF	; -49
   0264 CF                  746 	.db #0xCF	; -49
   0265 CF                  747 	.db #0xCF	; -49
   0266 CF                  748 	.db #0xCF	; -49
   0267 CF                  749 	.db #0xCF	; -49
   0268 CF                  750 	.db #0xCF	; -49
   0269 CF                  751 	.db #0xCF	; -49
   026A 45                  752 	.db #0x45	;  69	'E'
   026B CB                  753 	.db #0xCB	; -53
   026C C3                  754 	.db #0xC3	; -61
   026D 8A                  755 	.db #0x8A	; -118
   026E 45                  756 	.db #0x45	;  69	'E'
   026F CB                  757 	.db #0xCB	; -53
   0270 C7                  758 	.db #0xC7	; -57
   0271 8A                  759 	.db #0x8A	; -118
   0272 00                  760 	.db #0x00	;  0
   0273 CF                  761 	.db #0xCF	; -49
   0274 C7                  762 	.db #0xC7	; -57
   0275 00                  763 	.db #0x00	;  0
   0276 00                  764 	.db #0x00	;  0
   0277 45                  765 	.db #0x45	;  69	'E'
   0278 8A                  766 	.db #0x8A	; -118
   0279 00                  767 	.db #0x00	;  0
   027A                     768 _SpriteCarretera:
   027A FC                  769 	.db #0xFC	; -4
   027B FC                  770 	.db #0xFC	; -4
   027C FC                  771 	.db #0xFC	; -4
   027D FC                  772 	.db #0xFC	; -4
   027E FC                  773 	.db #0xFC	; -4
   027F FC                  774 	.db #0xFC	; -4
   0280 FC                  775 	.db #0xFC	; -4
   0281 FC                  776 	.db #0xFC	; -4
   0282 FC                  777 	.db #0xFC	; -4
   0283 FC                  778 	.db #0xFC	; -4
   0284 FC                  779 	.db #0xFC	; -4
   0285 FC                  780 	.db #0xFC	; -4
   0286 FC                  781 	.db #0xFC	; -4
   0287 FC                  782 	.db #0xFC	; -4
   0288 FC                  783 	.db #0xFC	; -4
   0289 FC                  784 	.db #0xFC	; -4
   028A FC                  785 	.db #0xFC	; -4
   028B C0                  786 	.db #0xC0	; -64
   028C C0                  787 	.db #0xC0	; -64
   028D D4                  788 	.db #0xD4	; -44
   028E FC                  789 	.db #0xFC	; -4
   028F C0                  790 	.db #0xC0	; -64
   0290 C0                  791 	.db #0xC0	; -64
   0291 D4                  792 	.db #0xD4	; -44
   0292 FC                  793 	.db #0xFC	; -4
   0293 FC                  794 	.db #0xFC	; -4
   0294 FC                  795 	.db #0xFC	; -4
   0295 FC                  796 	.db #0xFC	; -4
   0296 FC                  797 	.db #0xFC	; -4
   0297 FC                  798 	.db #0xFC	; -4
   0298 FC                  799 	.db #0xFC	; -4
   0299 FC                  800 	.db #0xFC	; -4
   029A FC                  801 	.db #0xFC	; -4
   029B FC                  802 	.db #0xFC	; -4
   029C FC                  803 	.db #0xFC	; -4
   029D FC                  804 	.db #0xFC	; -4
   029E FC                  805 	.db #0xFC	; -4
   029F FC                  806 	.db #0xFC	; -4
   02A0 FC                  807 	.db #0xFC	; -4
   02A1 FC                  808 	.db #0xFC	; -4
   02A2                     809 _SpritePuerta1:
   02A2 C3                  810 	.db #0xC3	; -61
   02A3 C3                  811 	.db #0xC3	; -61
   02A4 C3                  812 	.db #0xC3	; -61
   02A5 C3                  813 	.db #0xC3	; -61
   02A6 92                  814 	.db #0x92	; -110
   02A7 30                  815 	.db #0x30	;  48	'0'
   02A8 30                  816 	.db #0x30	;  48	'0'
   02A9 61                  817 	.db #0x61	;  97	'a'
   02AA 92                  818 	.db #0x92	; -110
   02AB 30                  819 	.db #0x30	;  48	'0'
   02AC 30                  820 	.db #0x30	;  48	'0'
   02AD 61                  821 	.db #0x61	;  97	'a'
   02AE 92                  822 	.db #0x92	; -110
   02AF 30                  823 	.db #0x30	;  48	'0'
   02B0 30                  824 	.db #0x30	;  48	'0'
   02B1 61                  825 	.db #0x61	;  97	'a'
   02B2 92                  826 	.db #0x92	; -110
   02B3 30                  827 	.db #0x30	;  48	'0'
   02B4 30                  828 	.db #0x30	;  48	'0'
   02B5 61                  829 	.db #0x61	;  97	'a'
   02B6 92                  830 	.db #0x92	; -110
   02B7 30                  831 	.db #0x30	;  48	'0'
   02B8 30                  832 	.db #0x30	;  48	'0'
   02B9 61                  833 	.db #0x61	;  97	'a'
   02BA 92                  834 	.db #0x92	; -110
   02BB 30                  835 	.db #0x30	;  48	'0'
   02BC 30                  836 	.db #0x30	;  48	'0'
   02BD 61                  837 	.db #0x61	;  97	'a'
   02BE 92                  838 	.db #0x92	; -110
   02BF 30                  839 	.db #0x30	;  48	'0'
   02C0 30                  840 	.db #0x30	;  48	'0'
   02C1 61                  841 	.db #0x61	;  97	'a'
   02C2 92                  842 	.db #0x92	; -110
   02C3 30                  843 	.db #0x30	;  48	'0'
   02C4 30                  844 	.db #0x30	;  48	'0'
   02C5 61                  845 	.db #0x61	;  97	'a'
   02C6 92                  846 	.db #0x92	; -110
   02C7 30                  847 	.db #0x30	;  48	'0'
   02C8 30                  848 	.db #0x30	;  48	'0'
   02C9 61                  849 	.db #0x61	;  97	'a'
   02CA                     850 _SpritePuerta2:
   02CA C3                  851 	.db #0xC3	; -61
   02CB C3                  852 	.db #0xC3	; -61
   02CC C3                  853 	.db #0xC3	; -61
   02CD C3                  854 	.db #0xC3	; -61
   02CE 92                  855 	.db #0x92	; -110
   02CF 30                  856 	.db #0x30	;  48	'0'
   02D0 30                  857 	.db #0x30	;  48	'0'
   02D1 61                  858 	.db #0x61	;  97	'a'
   02D2 92                  859 	.db #0x92	; -110
   02D3 30                  860 	.db #0x30	;  48	'0'
   02D4 30                  861 	.db #0x30	;  48	'0'
   02D5 61                  862 	.db #0x61	;  97	'a'
   02D6 92                  863 	.db #0x92	; -110
   02D7 30                  864 	.db #0x30	;  48	'0'
   02D8 30                  865 	.db #0x30	;  48	'0'
   02D9 61                  866 	.db #0x61	;  97	'a'
   02DA 92                  867 	.db #0x92	; -110
   02DB 30                  868 	.db #0x30	;  48	'0'
   02DC 30                  869 	.db #0x30	;  48	'0'
   02DD 61                  870 	.db #0x61	;  97	'a'
   02DE 92                  871 	.db #0x92	; -110
   02DF 30                  872 	.db #0x30	;  48	'0'
   02E0 30                  873 	.db #0x30	;  48	'0'
   02E1 61                  874 	.db #0x61	;  97	'a'
   02E2 92                  875 	.db #0x92	; -110
   02E3 30                  876 	.db #0x30	;  48	'0'
   02E4 30                  877 	.db #0x30	;  48	'0'
   02E5 61                  878 	.db #0x61	;  97	'a'
   02E6 92                  879 	.db #0x92	; -110
   02E7 30                  880 	.db #0x30	;  48	'0'
   02E8 30                  881 	.db #0x30	;  48	'0'
   02E9 61                  882 	.db #0x61	;  97	'a'
   02EA 92                  883 	.db #0x92	; -110
   02EB 30                  884 	.db #0x30	;  48	'0'
   02EC 30                  885 	.db #0x30	;  48	'0'
   02ED 61                  886 	.db #0x61	;  97	'a'
   02EE 92                  887 	.db #0x92	; -110
   02EF 30                  888 	.db #0x30	;  48	'0'
   02F0 30                  889 	.db #0x30	;  48	'0'
   02F1 61                  890 	.db #0x61	;  97	'a'
   02F2                     891 _SpritePuerta3:
   02F2 92                  892 	.db #0x92	; -110
   02F3 30                  893 	.db #0x30	;  48	'0'
   02F4 61                  894 	.db #0x61	;  97	'a'
   02F5 61                  895 	.db #0x61	;  97	'a'
   02F6 92                  896 	.db #0x92	; -110
   02F7 30                  897 	.db #0x30	;  48	'0'
   02F8 30                  898 	.db #0x30	;  48	'0'
   02F9 61                  899 	.db #0x61	;  97	'a'
   02FA 92                  900 	.db #0x92	; -110
   02FB 30                  901 	.db #0x30	;  48	'0'
   02FC 30                  902 	.db #0x30	;  48	'0'
   02FD 61                  903 	.db #0x61	;  97	'a'
   02FE 92                  904 	.db #0x92	; -110
   02FF 30                  905 	.db #0x30	;  48	'0'
   0300 30                  906 	.db #0x30	;  48	'0'
   0301 61                  907 	.db #0x61	;  97	'a'
   0302 92                  908 	.db #0x92	; -110
   0303 30                  909 	.db #0x30	;  48	'0'
   0304 30                  910 	.db #0x30	;  48	'0'
   0305 61                  911 	.db #0x61	;  97	'a'
   0306 92                  912 	.db #0x92	; -110
   0307 30                  913 	.db #0x30	;  48	'0'
   0308 30                  914 	.db #0x30	;  48	'0'
   0309 61                  915 	.db #0x61	;  97	'a'
   030A 92                  916 	.db #0x92	; -110
   030B 30                  917 	.db #0x30	;  48	'0'
   030C 30                  918 	.db #0x30	;  48	'0'
   030D 61                  919 	.db #0x61	;  97	'a'
   030E 92                  920 	.db #0x92	; -110
   030F 30                  921 	.db #0x30	;  48	'0'
   0310 30                  922 	.db #0x30	;  48	'0'
   0311 61                  923 	.db #0x61	;  97	'a'
   0312 92                  924 	.db #0x92	; -110
   0313 30                  925 	.db #0x30	;  48	'0'
   0314 30                  926 	.db #0x30	;  48	'0'
   0315 61                  927 	.db #0x61	;  97	'a'
   0316 92                  928 	.db #0x92	; -110
   0317 30                  929 	.db #0x30	;  48	'0'
   0318 30                  930 	.db #0x30	;  48	'0'
   0319 61                  931 	.db #0x61	;  97	'a'
   031A                     932 _SpritePuerta4:
   031A 92                  933 	.db #0x92	; -110
   031B 92                  934 	.db #0x92	; -110
   031C 30                  935 	.db #0x30	;  48	'0'
   031D 61                  936 	.db #0x61	;  97	'a'
   031E 92                  937 	.db #0x92	; -110
   031F 30                  938 	.db #0x30	;  48	'0'
   0320 30                  939 	.db #0x30	;  48	'0'
   0321 61                  940 	.db #0x61	;  97	'a'
   0322 92                  941 	.db #0x92	; -110
   0323 30                  942 	.db #0x30	;  48	'0'
   0324 30                  943 	.db #0x30	;  48	'0'
   0325 61                  944 	.db #0x61	;  97	'a'
   0326 92                  945 	.db #0x92	; -110
   0327 30                  946 	.db #0x30	;  48	'0'
   0328 30                  947 	.db #0x30	;  48	'0'
   0329 61                  948 	.db #0x61	;  97	'a'
   032A 92                  949 	.db #0x92	; -110
   032B 30                  950 	.db #0x30	;  48	'0'
   032C 30                  951 	.db #0x30	;  48	'0'
   032D 61                  952 	.db #0x61	;  97	'a'
   032E 92                  953 	.db #0x92	; -110
   032F 30                  954 	.db #0x30	;  48	'0'
   0330 30                  955 	.db #0x30	;  48	'0'
   0331 61                  956 	.db #0x61	;  97	'a'
   0332 92                  957 	.db #0x92	; -110
   0333 30                  958 	.db #0x30	;  48	'0'
   0334 30                  959 	.db #0x30	;  48	'0'
   0335 61                  960 	.db #0x61	;  97	'a'
   0336 92                  961 	.db #0x92	; -110
   0337 30                  962 	.db #0x30	;  48	'0'
   0338 30                  963 	.db #0x30	;  48	'0'
   0339 61                  964 	.db #0x61	;  97	'a'
   033A 92                  965 	.db #0x92	; -110
   033B 30                  966 	.db #0x30	;  48	'0'
   033C 30                  967 	.db #0x30	;  48	'0'
   033D 61                  968 	.db #0x61	;  97	'a'
   033E 92                  969 	.db #0x92	; -110
   033F 30                  970 	.db #0x30	;  48	'0'
   0340 30                  971 	.db #0x30	;  48	'0'
   0341 61                  972 	.db #0x61	;  97	'a'
   0342                     973 _Palette:
   0342 0D                  974 	.db #0x0D	; 13
   0343 1A                  975 	.db #0x1A	; 26
   0344 08                  976 	.db #0x08	; 8
   0345 18                  977 	.db #0x18	; 24
   0346 0B                  978 	.db #0x0B	; 11
   0347 12                  979 	.db #0x12	; 18
   0348 19                  980 	.db #0x19	; 25
   0349 16                  981 	.db #0x16	; 22
   034A 06                  982 	.db #0x06	; 6
   034B 03                  983 	.db #0x03	; 3
   034C 04                  984 	.db #0x04	; 4
   034D 0D                  985 	.db #0x0D	; 13
   034E 0A                  986 	.db #0x0A	; 10
   034F 00                  987 	.db #0x00	; 0
   0350 19                  988 	.db #0x19	; 25
   0351 08                  989 	.db #0x08	; 8
                            990 ;ramon.c:112: char GetChar()
                            991 ;	---------------------------------
                            992 ; Function GetChar
                            993 ; ---------------------------------
   0352                     994 _GetChar_start::
   0352                     995 _GetChar:
                            996 ;ramon.c:121: __endasm;
   0352 21rB6r01      [10]  997 	LD HL, #_nGetChar
   0355 36 00         [10]  998 	LD (HL), #0
   0357 CD 09 BB      [17]  999 	CALL #0xBB09 ;KM READ CHAR
   035A D2r5Er03      [10] 1000 	JP NC, _end_getchar
   035D 77            [ 7] 1001 	LD (HL), A
   035E                    1002 	  _end_getchar:
                           1003 ;ramon.c:123: return nGetChar;
   035E FD 21rB6r01   [14] 1004 	ld	iy,#_nGetChar
   0362 FD 6E 00      [19] 1005 	ld	l,0 (iy)
   0365 C9            [10] 1006 	ret
   0366                    1007 _GetChar_end::
                           1008 ;ramon.c:128: void PutSpriteMode0(unsigned char *pAddress, unsigned char nWidth, unsigned char nHeight, unsigned char *pSprite)
                           1009 ;	---------------------------------
                           1010 ; Function PutSpriteMode0
                           1011 ; ---------------------------------
   0366                    1012 _PutSpriteMode0_start::
   0366                    1013 _PutSpriteMode0:
   0366 DD E5         [15] 1014 	push	ix
   0368 DD 21 00 00   [14] 1015 	ld	ix,#0
   036C DD 39         [15] 1016 	add	ix,sp
                           1017 ;ramon.c:159: __endasm;
   036E DD 6E 04      [19] 1018 	LD L, 4(IX)
   0371 DD 66 05      [19] 1019 	LD H, 5(IX)
   0374 DD 4E 06      [19] 1020 	LD C, 6(IX)
   0377 DD 46 07      [19] 1021 	LD B, 7(IX)
   037A DD 5E 08      [19] 1022 	LD E, 8(IX)
   037D DD 56 09      [19] 1023 	LD D, 9(IX)
   0380                    1024 	  _loop_alto:
   0380 C5            [11] 1025 	PUSH BC
   0381 41            [ 4] 1026 	LD B,C
   0382 E5            [11] 1027 	PUSH HL
   0383                    1028 	  _loop_ancho:
   0383 1A            [ 7] 1029 	LD A,(DE)
   0384 77            [ 7] 1030 	LD (HL),A
   0385 13            [ 6] 1031 	INC DE
   0386 23            [ 6] 1032 	INC HL
   0387 10 FA         [13] 1033 	DJNZ _loop_ancho
   0389 E1            [10] 1034 	POP HL
   038A 7C            [ 4] 1035 	LD A,H
   038B C6 08         [ 7] 1036 	ADD #0x08
   038D 67            [ 4] 1037 	LD H,A
   038E D6 C0         [ 7] 1038 	SUB #0xC0
   0390 D2r97r03      [10] 1039 	JP NC, _sig_linea
   0393 01 50 C0      [10] 1040 	LD BC, #0xC050
   0396 09            [11] 1041 	ADD HL,BC
   0397                    1042 	  _sig_linea:
   0397 C1            [10] 1043 	POP BC
   0398 10 E6         [13] 1044 	DJNZ _loop_alto
   039A DD E1         [14] 1045 	pop	ix
   039C C9            [10] 1046 	ret
   039D                    1047 _PutSpriteMode0_end::
                           1048 ;ramon.c:163: void PutSpriteMode0Trans(unsigned char *pAddress, unsigned char nWidth, unsigned char nHeight, unsigned char *pSprite)
                           1049 ;	---------------------------------
                           1050 ; Function PutSpriteMode0Trans
                           1051 ; ---------------------------------
   039D                    1052 _PutSpriteMode0Trans_start::
   039D                    1053 _PutSpriteMode0Trans:
   039D DD E5         [15] 1054 	push	ix
   039F DD 21 00 00   [14] 1055 	ld	ix,#0
   03A3 DD 39         [15] 1056 	add	ix,sp
                           1057 ;ramon.c:197: __endasm;
   03A5 DD 6E 04      [19] 1058 	LD L, 4(IX)
   03A8 DD 66 05      [19] 1059 	LD H, 5(IX)
   03AB DD 4E 06      [19] 1060 	LD C, 6(IX)
   03AE DD 46 07      [19] 1061 	LD B, 7(IX)
   03B1 DD 5E 08      [19] 1062 	LD E, 8(IX)
   03B4 DD 56 09      [19] 1063 	LD D, 9(IX)
   03B7                    1064 	_loop_alto2:
   03B7 C5            [11] 1065 	PUSH BC
   03B8 41            [ 4] 1066 	LD B,C
   03B9 E5            [11] 1067 	PUSH HL
   03BA                    1068 	_loop_ancho2:
   03BA 1A            [ 7] 1069 	LD A,(DE)
   03BB FE 00         [ 7] 1070 	CP #0
   03BD CArC1r03      [10] 1071 	JP Z, _notpaint
   03C0 77            [ 7] 1072 	LD (HL),A
   03C1                    1073 	_notpaint:
   03C1 13            [ 6] 1074 	INC DE
   03C2 23            [ 6] 1075 	INC HL
   03C3 10 F5         [13] 1076 	DJNZ _loop_ancho2
   03C5 E1            [10] 1077 	POP HL
   03C6 7C            [ 4] 1078 	LD A,H
   03C7 C6 08         [ 7] 1079 	ADD #0x08
   03C9 67            [ 4] 1080 	LD H,A
   03CA D6 C0         [ 7] 1081 	SUB #0xC0
   03CC D2rD3r03      [10] 1082 	JP NC, _sig_linea2
   03CF 01 50 C0      [10] 1083 	LD BC, #0xC050
   03D2 09            [11] 1084 	ADD HL,BC
   03D3                    1085 	_sig_linea2:
   03D3 C1            [10] 1086 	POP BC
   03D4 10 E1         [13] 1087 	DJNZ _loop_alto2
   03D6 DD E1         [14] 1088 	pop	ix
   03D8 C9            [10] 1089 	ret
   03D9                    1090 _PutSpriteMode0Trans_end::
                           1091 ;ramon.c:201: void DrawTile(unsigned char nTileX, unsigned char nTileY)
                           1092 ;	---------------------------------
                           1093 ; Function DrawTile
                           1094 ; ---------------------------------
   03D9                    1095 _DrawTile_start::
   03D9                    1096 _DrawTile:
   03D9 DD E5         [15] 1097 	push	ix
   03DB DD 21 00 00   [14] 1098 	ld	ix,#0
   03DF DD 39         [15] 1099 	add	ix,sp
   03E1 21 FA FF      [10] 1100 	ld	hl,#-6
   03E4 39            [11] 1101 	add	hl,sp
   03E5 F9            [ 6] 1102 	ld	sp,hl
                           1103 ;ramon.c:203: enum _eTileType eTileType = aBackgroundTiles[nTileX][nTileY];
   03E6 DD 4E 04      [19] 1104 	ld	c,4 (ix)
   03E9 06 00         [ 7] 1105 	ld	b,#0x00
   03EB 69            [ 4] 1106 	ld	l, c
   03EC 60            [ 4] 1107 	ld	h, b
   03ED 29            [11] 1108 	add	hl, hl
   03EE 29            [11] 1109 	add	hl, hl
   03EF 09            [11] 1110 	add	hl, bc
   03F0 29            [11] 1111 	add	hl, hl
   03F1 29            [11] 1112 	add	hl, hl
   03F2 01r02r00      [10] 1113 	ld	bc,#_aBackgroundTiles
   03F5 09            [11] 1114 	add	hl,bc
   03F6 4D            [ 4] 1115 	ld	c,l
   03F7 44            [ 4] 1116 	ld	b,h
   03F8 DD 5E 05      [19] 1117 	ld	e,5 (ix)
   03FB 79            [ 4] 1118 	ld	a,c
   03FC 83            [ 4] 1119 	add	a, e
   03FD 4F            [ 4] 1120 	ld	c,a
   03FE 78            [ 4] 1121 	ld	a,b
   03FF CE 00         [ 7] 1122 	adc	a, #0x00
   0401 47            [ 4] 1123 	ld	b,a
   0402 0A            [ 7] 1124 	ld	a,(bc)
   0403 4F            [ 4] 1125 	ld	c,a
                           1126 ;ramon.c:205: unsigned int nY = nTileY * TILE_HEIGHT;
   0404 D5            [11] 1127 	push	de
   0405 16 00         [ 7] 1128 	ld	d,#0x00
   0407 6B            [ 4] 1129 	ld	l, e
   0408 62            [ 4] 1130 	ld	h, d
   0409 29            [11] 1131 	add	hl, hl
   040A 29            [11] 1132 	add	hl, hl
   040B 19            [11] 1133 	add	hl, de
   040C 29            [11] 1134 	add	hl, hl
   040D D1            [10] 1135 	pop	de
   040E E3            [19] 1136 	ex	(sp), hl
                           1137 ;ramon.c:206: unsigned int nX = nTileX * TILE_WIDTH;
   040F DD 6E 04      [19] 1138 	ld	l,4 (ix)
   0412 26 00         [ 7] 1139 	ld	h,#0x00
   0414 29            [11] 1140 	add	hl, hl
   0415 29            [11] 1141 	add	hl, hl
   0416 29            [11] 1142 	add	hl, hl
   0417 DD 75 FE      [19] 1143 	ld	-2 (ix),l
   041A DD 74 FF      [19] 1144 	ld	-1 (ix),h
                           1145 ;ramon.c:207: unsigned char *pScreen = (unsigned char *)0xC000 + ((nY / 8) * 80) + ((nY % 8) * 2048) + (nX / 2);
   041D DD 56 FA      [19] 1146 	ld	d,-6 (ix)
   0420 DD 46 FB      [19] 1147 	ld	b,-5 (ix)
   0423 CB 38         [ 8] 1148 	srl	b
   0425 CB 1A         [ 8] 1149 	rr	d
   0427 CB 38         [ 8] 1150 	srl	b
   0429 CB 1A         [ 8] 1151 	rr	d
   042B CB 38         [ 8] 1152 	srl	b
   042D CB 1A         [ 8] 1153 	rr	d
   042F 5A            [ 4] 1154 	ld	e,d
   0430 50            [ 4] 1155 	ld	d,b
   0431 6B            [ 4] 1156 	ld	l, e
   0432 62            [ 4] 1157 	ld	h, d
   0433 29            [11] 1158 	add	hl, hl
   0434 29            [11] 1159 	add	hl, hl
   0435 19            [11] 1160 	add	hl, de
   0436 29            [11] 1161 	add	hl, hl
   0437 29            [11] 1162 	add	hl, hl
   0438 29            [11] 1163 	add	hl, hl
   0439 29            [11] 1164 	add	hl, hl
   043A 55            [ 4] 1165 	ld	d, l
   043B 7C            [ 4] 1166 	ld	a, h
   043C C6 C0         [ 7] 1167 	add	a,#0xC0
   043E 47            [ 4] 1168 	ld	b,a
   043F DD 7E FA      [19] 1169 	ld	a,-6 (ix)
   0442 E6 07         [ 7] 1170 	and	a, #0x07
   0444 07            [ 4] 1171 	rlca
   0445 07            [ 4] 1172 	rlca
   0446 07            [ 4] 1173 	rlca
   0447 E6 F8         [ 7] 1174 	and	a,#0xF8
   0449 67            [ 4] 1175 	ld	h,a
   044A 2E 00         [ 7] 1176 	ld	l,#0x00
   044C 7A            [ 4] 1177 	ld	a,d
   044D 85            [ 4] 1178 	add	a, l
   044E 57            [ 4] 1179 	ld	d,a
   044F 78            [ 4] 1180 	ld	a,b
   0450 8C            [ 4] 1181 	adc	a, h
   0451 47            [ 4] 1182 	ld	b,a
   0452 DD 6E FE      [19] 1183 	ld	l,-2 (ix)
   0455 DD 66 FF      [19] 1184 	ld	h,-1 (ix)
   0458 CB 3C         [ 8] 1185 	srl	h
   045A CB 1D         [ 8] 1186 	rr	l
   045C 7A            [ 4] 1187 	ld	a,d
   045D 85            [ 4] 1188 	add	a, l
   045E 57            [ 4] 1189 	ld	d,a
   045F 78            [ 4] 1190 	ld	a,b
   0460 8C            [ 4] 1191 	adc	a, h
   0461 DD 72 FC      [19] 1192 	ld	-4 (ix), d
   0464 DD 77 FD      [19] 1193 	ld	-3 (ix), a
                           1194 ;ramon.c:208: unsigned char *pSprite = (unsigned char *)SpriteLadrillo; // Fondo de acera
   0467 06r4A         [ 7] 1195 	ld	b,#<(_SpriteLadrillo)
   0469 1Es00         [ 7] 1196 	ld	e,#>(_SpriteLadrillo)
                           1197 ;ramon.c:210: switch(eTileType)
   046B 79            [ 4] 1198 	ld	a,c
   046C D6 01         [ 7] 1199 	sub	a, #0x01
   046E DAr1Cr05      [10] 1200 	jp	C,00118$
   0471 3E 11         [ 7] 1201 	ld	a,#0x11
   0473 91            [ 4] 1202 	sub	a, c
   0474 DAr1Cr05      [10] 1203 	jp	C,00118$
   0477 51            [ 4] 1204 	ld	d,c
   0478 15            [ 4] 1205 	dec	d
   0479 D5            [11] 1206 	push	de
   047A 5A            [ 4] 1207 	ld	e,d
   047B 16 00         [ 7] 1208 	ld	d,#0x00
   047D 21r85r04      [10] 1209 	ld	hl,#00133$
   0480 19            [11] 1210 	add	hl,de
   0481 19            [11] 1211 	add	hl,de
   0482 19            [11] 1212 	add	hl,de
   0483 D1            [10] 1213 	pop	de
   0484 E9            [ 4] 1214 	jp	(hl)
   0485                    1215 00133$:
   0485 C3rB8r04      [10] 1216 	jp	00101$
   0488 C3rBEr04      [10] 1217 	jp	00102$
   048B C3rC4r04      [10] 1218 	jp	00103$
   048E C3rCAr04      [10] 1219 	jp	00104$
   0491 C3rD0r04      [10] 1220 	jp	00105$
   0494 C3rD6r04      [10] 1221 	jp	00106$
   0497 C3rE2r04      [10] 1222 	jp	00108$
   049A C3rE8r04      [10] 1223 	jp	00109$
   049D C3rEEr04      [10] 1224 	jp	00110$
   04A0 C3rF4r04      [10] 1225 	jp	00111$
   04A3 C3rFAr04      [10] 1226 	jp	00112$
   04A6 C3r00r05      [10] 1227 	jp	00113$
   04A9 C3rDCr04      [10] 1228 	jp	00107$
   04AC C3r06r05      [10] 1229 	jp	00114$
   04AF C3r0Cr05      [10] 1230 	jp	00115$
   04B2 C3r12r05      [10] 1231 	jp	00116$
   04B5 C3r18r05      [10] 1232 	jp	00117$
                           1233 ;ramon.c:213: case TileType_Camion1:
   04B8                    1234 00101$:
                           1235 ;ramon.c:214: pSprite = (unsigned char *)SpriteCamion1;
   04B8 06r8A         [ 7] 1236 	ld	b,#<(_SpriteCamion1)
   04BA 1Es01         [ 7] 1237 	ld	e,#>(_SpriteCamion1)
                           1238 ;ramon.c:215: break;
   04BC 18 5E         [12] 1239 	jr	00118$
                           1240 ;ramon.c:216: case TileType_Camion2:
   04BE                    1241 00102$:
                           1242 ;ramon.c:217: pSprite = (unsigned char *)SpriteCamion2;
   04BE 06rB2         [ 7] 1243 	ld	b,#<(_SpriteCamion2)
   04C0 1Es01         [ 7] 1244 	ld	e,#>(_SpriteCamion2)
                           1245 ;ramon.c:218: break;
   04C2 18 58         [12] 1246 	jr	00118$
                           1247 ;ramon.c:219: case TileType_Camion3:
   04C4                    1248 00103$:
                           1249 ;ramon.c:220: pSprite = (unsigned char *)SpriteCamion3;
   04C4 06rDA         [ 7] 1250 	ld	b,#<(_SpriteCamion3)
   04C6 1Es01         [ 7] 1251 	ld	e,#>(_SpriteCamion3)
                           1252 ;ramon.c:221: break;
   04C8 18 52         [12] 1253 	jr	00118$
                           1254 ;ramon.c:222: case TileType_Camion4:
   04CA                    1255 00104$:
                           1256 ;ramon.c:223: pSprite = (unsigned char *)SpriteCamion4;
   04CA 06r02         [ 7] 1257 	ld	b,#<(_SpriteCamion4)
   04CC 1Es02         [ 7] 1258 	ld	e,#>(_SpriteCamion4)
                           1259 ;ramon.c:224: break;
   04CE 18 4C         [12] 1260 	jr	00118$
                           1261 ;ramon.c:225: case TileType_Camion5:
   04D0                    1262 00105$:
                           1263 ;ramon.c:226: pSprite = (unsigned char *)SpriteCamion5;
   04D0 06r2A         [ 7] 1264 	ld	b,#<(_SpriteCamion5)
   04D2 1Es02         [ 7] 1265 	ld	e,#>(_SpriteCamion5)
                           1266 ;ramon.c:227: break;
   04D4 18 46         [12] 1267 	jr	00118$
                           1268 ;ramon.c:228: case TileType_Camion6:
   04D6                    1269 00106$:
                           1270 ;ramon.c:229: pSprite = (unsigned char *)SpriteCamion6;
   04D6 06r52         [ 7] 1271 	ld	b,#<(_SpriteCamion6)
   04D8 1Es02         [ 7] 1272 	ld	e,#>(_SpriteCamion6)
                           1273 ;ramon.c:230: break;
   04DA 18 40         [12] 1274 	jr	00118$
                           1275 ;ramon.c:231: case TileType_Carretera:
   04DC                    1276 00107$:
                           1277 ;ramon.c:232: pSprite = (unsigned char *)SpriteCarretera;
   04DC 06r7A         [ 7] 1278 	ld	b,#<(_SpriteCarretera)
   04DE 1Es02         [ 7] 1279 	ld	e,#>(_SpriteCarretera)
                           1280 ;ramon.c:233: break;
   04E0 18 3A         [12] 1281 	jr	00118$
                           1282 ;ramon.c:234: case TileType_Banco:
   04E2                    1283 00108$:
                           1284 ;ramon.c:235: pSprite = (unsigned char *)SpriteBanco;
   04E2 06r22         [ 7] 1285 	ld	b,#<(_SpriteBanco)
   04E4 1Es00         [ 7] 1286 	ld	e,#>(_SpriteBanco)
                           1287 ;ramon.c:236: break;
   04E6 18 34         [12] 1288 	jr	00118$
                           1289 ;ramon.c:237: case TileType_Player_f1:
   04E8                    1290 00109$:
                           1291 ;ramon.c:238: pSprite = (unsigned char *)SpritePlayerF1;
   04E8 06r72         [ 7] 1292 	ld	b,#<(_SpritePlayerF1)
   04EA 1Es00         [ 7] 1293 	ld	e,#>(_SpritePlayerF1)
                           1294 ;ramon.c:239: break;
   04EC 18 2E         [12] 1295 	jr	00118$
                           1296 ;ramon.c:240: case TileType_Player_f2:
   04EE                    1297 00110$:
                           1298 ;ramon.c:241: pSprite = (unsigned char *)SpritePlayerF2;
   04EE 06r9A         [ 7] 1299 	ld	b,#<(_SpritePlayerF2)
   04F0 1Es00         [ 7] 1300 	ld	e,#>(_SpritePlayerF2)
                           1301 ;ramon.c:242: break;
   04F2 18 28         [12] 1302 	jr	00118$
                           1303 ;ramon.c:243: case TileType_Poli_f1:
   04F4                    1304 00111$:
                           1305 ;ramon.c:244: pSprite = (unsigned char *)SpritePoliF1;
   04F4 06rC2         [ 7] 1306 	ld	b,#<(_SpritePoliF1)
   04F6 1Es00         [ 7] 1307 	ld	e,#>(_SpritePoliF1)
                           1308 ;ramon.c:245: break;
   04F8 18 22         [12] 1309 	jr	00118$
                           1310 ;ramon.c:246: case TileType_Poli_f2:
   04FA                    1311 00112$:
                           1312 ;ramon.c:247: pSprite = (unsigned char *)SpritePoliF2;
   04FA 06rEA         [ 7] 1313 	ld	b,#<(_SpritePoliF2)
   04FC 1Es00         [ 7] 1314 	ld	e,#>(_SpritePoliF2)
                           1315 ;ramon.c:248: break;
   04FE 18 1C         [12] 1316 	jr	00118$
                           1317 ;ramon.c:249: case TileType_Bolsa:
   0500                    1318 00113$:
                           1319 ;ramon.c:250: pSprite = (unsigned char *)SpriteBolsa;
   0500 06r12         [ 7] 1320 	ld	b,#<(_SpriteBolsa)
   0502 1Es01         [ 7] 1321 	ld	e,#>(_SpriteBolsa)
                           1322 ;ramon.c:251: break;
   0504 18 16         [12] 1323 	jr	00118$
                           1324 ;ramon.c:252: case TileType_Puerta1:
   0506                    1325 00114$:
                           1326 ;ramon.c:253: pSprite = (unsigned char *)SpritePuerta1;
   0506 06rA2         [ 7] 1327 	ld	b,#<(_SpritePuerta1)
   0508 1Es02         [ 7] 1328 	ld	e,#>(_SpritePuerta1)
                           1329 ;ramon.c:254: break;
   050A 18 10         [12] 1330 	jr	00118$
                           1331 ;ramon.c:255: case TileType_Puerta2:
   050C                    1332 00115$:
                           1333 ;ramon.c:256: pSprite = (unsigned char *)SpritePuerta2;
   050C 06rCA         [ 7] 1334 	ld	b,#<(_SpritePuerta2)
   050E 1Es02         [ 7] 1335 	ld	e,#>(_SpritePuerta2)
                           1336 ;ramon.c:257: break;
   0510 18 0A         [12] 1337 	jr	00118$
                           1338 ;ramon.c:258: case TileType_Puerta3:
   0512                    1339 00116$:
                           1340 ;ramon.c:259: pSprite = (unsigned char *)SpritePuerta3;
   0512 06rF2         [ 7] 1341 	ld	b,#<(_SpritePuerta3)
   0514 1Es02         [ 7] 1342 	ld	e,#>(_SpritePuerta3)
                           1343 ;ramon.c:260: break;
   0516 18 04         [12] 1344 	jr	00118$
                           1345 ;ramon.c:261: case TileType_Puerta4:
   0518                    1346 00117$:
                           1347 ;ramon.c:262: pSprite = (unsigned char *)SpritePuerta4;
   0518 06r1A         [ 7] 1348 	ld	b,#<(_SpritePuerta4)
   051A 1Es03         [ 7] 1349 	ld	e,#>(_SpritePuerta4)
                           1350 ;ramon.c:264: }
   051C                    1351 00118$:
                           1352 ;ramon.c:267: if(eTileType == TileType_Banco) {
   051C 79            [ 4] 1353 	ld	a,c
   051D D6 07         [ 7] 1354 	sub	a, #0x07
   051F 20 18         [12] 1355 	jr	NZ,00120$
                           1356 ;ramon.c:268: PutSpriteMode0(pScreen, TILE_WIDTH / 2, TILE_HEIGHT, pSprite);
   0521 68            [ 4] 1357 	ld	l, b
   0522 63            [ 4] 1358 	ld	h, e
   0523 E5            [11] 1359 	push	hl
   0524 21 04 0A      [10] 1360 	ld	hl,#0x0A04
   0527 E5            [11] 1361 	push	hl
   0528 DD 6E FC      [19] 1362 	ld	l,-4 (ix)
   052B DD 66 FD      [19] 1363 	ld	h,-3 (ix)
   052E E5            [11] 1364 	push	hl
   052F CDr66r03      [17] 1365 	call	_PutSpriteMode0
   0532 21 06 00      [10] 1366 	ld	hl,#0x0006
   0535 39            [11] 1367 	add	hl,sp
   0536 F9            [ 6] 1368 	ld	sp,hl
   0537 18 16         [12] 1369 	jr	00122$
   0539                    1370 00120$:
                           1371 ;ramon.c:271: PutSpriteMode0Trans(pScreen, TILE_WIDTH / 2, TILE_HEIGHT, pSprite);
   0539 68            [ 4] 1372 	ld	l, b
   053A 63            [ 4] 1373 	ld	h, e
   053B E5            [11] 1374 	push	hl
   053C 21 04 0A      [10] 1375 	ld	hl,#0x0A04
   053F E5            [11] 1376 	push	hl
   0540 DD 6E FC      [19] 1377 	ld	l,-4 (ix)
   0543 DD 66 FD      [19] 1378 	ld	h,-3 (ix)
   0546 E5            [11] 1379 	push	hl
   0547 CDr9Dr03      [17] 1380 	call	_PutSpriteMode0Trans
   054A 21 06 00      [10] 1381 	ld	hl,#0x0006
   054D 39            [11] 1382 	add	hl,sp
   054E F9            [ 6] 1383 	ld	sp,hl
   054F                    1384 00122$:
   054F DD F9         [10] 1385 	ld	sp,ix
   0551 DD E1         [14] 1386 	pop	ix
   0553 C9            [10] 1387 	ret
   0554                    1388 _DrawTile_end::
                           1389 ;ramon.c:276: void SetColor(unsigned char nColorIndex, unsigned char nPaletteIndex)
                           1390 ;	---------------------------------
                           1391 ; Function SetColor
                           1392 ; ---------------------------------
   0554                    1393 _SetColor_start::
   0554                    1394 _SetColor:
   0554 DD E5         [15] 1395 	push	ix
   0556 DD 21 00 00   [14] 1396 	ld	ix,#0
   055A DD 39         [15] 1397 	add	ix,sp
                           1398 ;ramon.c:283: __endasm;
   055C DD 7E 04      [19] 1399 	ld a, 4 (ix)
   055F DD 46 05      [19] 1400 	ld b, 5 (ix)
   0562 48            [ 4] 1401 	ld c, b
   0563 CD 32 BC      [17] 1402 	call #0xBC32 ;SCR SET INK
   0566 DD E1         [14] 1403 	pop	ix
   0568 C9            [10] 1404 	ret
   0569                    1405 _SetColor_end::
                           1406 ;ramon.c:287: void SetMode(unsigned char nMode)
                           1407 ;	---------------------------------
                           1408 ; Function SetMode
                           1409 ; ---------------------------------
   0569                    1410 _SetMode_start::
   0569                    1411 _SetMode:
   0569 DD E5         [15] 1412 	push	ix
   056B DD 21 00 00   [14] 1413 	ld	ix,#0
   056F DD 39         [15] 1414 	add	ix,sp
                           1415 ;ramon.c:292: __endasm;
   0571 DD 7E 04      [19] 1416 	ld a, 4 (ix)
   0574 CD 0E BC      [17] 1417 	call #0xBC0E ;SCR_SET_MODE
   0577 DD E1         [14] 1418 	pop	ix
   0579 C9            [10] 1419 	ret
   057A                    1420 _SetMode_end::
                           1421 ;ramon.c:296: void SetCursor(unsigned char nColum, unsigned char nLine)
                           1422 ;	---------------------------------
                           1423 ; Function SetCursor
                           1424 ; ---------------------------------
   057A                    1425 _SetCursor_start::
   057A                    1426 _SetCursor:
   057A DD E5         [15] 1427 	push	ix
   057C DD 21 00 00   [14] 1428 	ld	ix,#0
   0580 DD 39         [15] 1429 	add	ix,sp
                           1430 ;ramon.c:302: __endasm;
   0582 DD 66 04      [19] 1431 	ld h, 4 (ix)
   0585 DD 6E 05      [19] 1432 	ld l, 5 (ix)
   0588 CD 75 BB      [17] 1433 	call #0xBB75 ;TXT SET CURSOR
   058B DD E1         [14] 1434 	pop	ix
   058D C9            [10] 1435 	ret
   058E                    1436 _SetCursor_end::
                           1437 ;ramon.c:306: void InitMode0()
                           1438 ;	---------------------------------
                           1439 ; Function InitMode0
                           1440 ; ---------------------------------
   058E                    1441 _InitMode0_start::
   058E                    1442 _InitMode0:
                           1443 ;ramon.c:308: SetMode(0);
   058E AF            [ 4] 1444 	xor	a, a
   058F F5            [11] 1445 	push	af
   0590 33            [ 6] 1446 	inc	sp
   0591 CDr69r05      [17] 1447 	call	_SetMode
   0594 33            [ 6] 1448 	inc	sp
                           1449 ;ramon.c:315: __endasm;
   0595 06 00         [ 7] 1450 	ld b, #0 ;black
   0597 48            [ 4] 1451 	ld c, b
   0598 CD 38 BC      [17] 1452 	call #0xBC38
   059B C9            [10] 1453 	ret
   059C                    1454 _InitMode0_end::
                           1455 ;ramon.c:319: void InitMode1()
                           1456 ;	---------------------------------
                           1457 ; Function InitMode1
                           1458 ; ---------------------------------
   059C                    1459 _InitMode1_start::
   059C                    1460 _InitMode1:
                           1461 ;ramon.c:321: SetMode(1);
   059C 3E 01         [ 7] 1462 	ld	a,#0x01
   059E F5            [11] 1463 	push	af
   059F 33            [ 6] 1464 	inc	sp
   05A0 CDr69r05      [17] 1465 	call	_SetMode
   05A3 33            [ 6] 1466 	inc	sp
                           1467 ;ramon.c:328: __endasm;
   05A4 06 00         [ 7] 1468 	ld b, #0 ;black
   05A6 48            [ 4] 1469 	ld c, b
   05A7 CD 38 BC      [17] 1470 	call #0xBC38
   05AA C9            [10] 1471 	ret
   05AB                    1472 _InitMode1_end::
                           1473 ;ramon.c:332: void initPaleta(void) {
                           1474 ;	---------------------------------
                           1475 ; Function initPaleta
                           1476 ; ---------------------------------
   05AB                    1477 _initPaleta_start::
   05AB                    1478 _initPaleta:
                           1479 ;ramon.c:335: for(nColor = 0; nColor < NUM_COLORS; nColor++)
   05AB 0E 00         [ 7] 1480 	ld	c,#0x00
   05AD                    1481 00102$:
                           1482 ;ramon.c:336: SetColor(nColor, Palette[nColor]);
   05AD 3Er42         [ 7] 1483 	ld	a,#<(_Palette)
   05AF 81            [ 4] 1484 	add	a, c
   05B0 5F            [ 4] 1485 	ld	e,a
   05B1 3Es03         [ 7] 1486 	ld	a,#>(_Palette)
   05B3 CE 00         [ 7] 1487 	adc	a, #0x00
   05B5 57            [ 4] 1488 	ld	d,a
   05B6 1A            [ 7] 1489 	ld	a,(de)
   05B7 6F            [ 4] 1490 	ld	l,a
   05B8 C5            [11] 1491 	push	bc
   05B9 7D            [ 4] 1492 	ld	a,l
   05BA F5            [11] 1493 	push	af
   05BB 33            [ 6] 1494 	inc	sp
   05BC 79            [ 4] 1495 	ld	a,c
   05BD F5            [11] 1496 	push	af
   05BE 33            [ 6] 1497 	inc	sp
   05BF CDr54r05      [17] 1498 	call	_SetColor
   05C2 F1            [10] 1499 	pop	af
   05C3 C1            [10] 1500 	pop	bc
                           1501 ;ramon.c:335: for(nColor = 0; nColor < NUM_COLORS; nColor++)
   05C4 0C            [ 4] 1502 	inc	c
   05C5 79            [ 4] 1503 	ld	a,c
   05C6 D6 10         [ 7] 1504 	sub	a, #0x10
   05C8 38 E3         [12] 1505 	jr	C,00102$
   05CA C9            [10] 1506 	ret
   05CB                    1507 _initPaleta_end::
                           1508 ;ramon.c:340: void InitGame()
                           1509 ;	---------------------------------
                           1510 ; Function InitGame
                           1511 ; ---------------------------------
   05CB                    1512 _InitGame_start::
   05CB                    1513 _InitGame:
   05CB DD E5         [15] 1514 	push	ix
   05CD DD 21 00 00   [14] 1515 	ld	ix,#0
   05D1 DD 39         [15] 1516 	add	ix,sp
   05D3 21 FA FF      [10] 1517 	ld	hl,#-6
   05D6 39            [11] 1518 	add	hl,sp
   05D7 F9            [ 6] 1519 	ld	sp,hl
                           1520 ;ramon.c:345: globalTimer = 0;
   05D8 21r00r00      [10] 1521 	ld	hl,#_globalTimer + 0
   05DB 36 00         [10] 1522 	ld	(hl), #0x00
                           1523 ;ramon.c:347: initPaleta();
   05DD CDrABr05      [17] 1524 	call	_initPaleta
                           1525 ;ramon.c:350: for(nX = 0; nX < NUM_TILES_WIDTH; nX++)
   05E0 DD 36 FC 00   [19] 1526 	ld	-4 (ix),#0x00
   05E4 DD 36 FD 00   [19] 1527 	ld	-3 (ix),#0x00
   05E8 11 00 00      [10] 1528 	ld	de,#0x0000
                           1529 ;ramon.c:351: for(nY = 0; nY < NUM_TILES_HEIGHT-3; nY++)
   05EB                    1530 00127$:
   05EB 21r02r00      [10] 1531 	ld	hl,#_aBackgroundTiles
   05EE 19            [11] 1532 	add	hl,de
   05EF DD 75 FE      [19] 1533 	ld	-2 (ix),l
   05F2 DD 74 FF      [19] 1534 	ld	-1 (ix),h
   05F5 21 00 00      [10] 1535 	ld	hl,#0x0000
   05F8 E3            [19] 1536 	ex	(sp), hl
   05F9                    1537 00109$:
                           1538 ;ramon.c:352: aBackgroundTiles[nX][nY] = TileType_None;
   05F9 DD 7E FE      [19] 1539 	ld	a,-2 (ix)
   05FC DD 86 FA      [19] 1540 	add	a, -6 (ix)
   05FF 4F            [ 4] 1541 	ld	c,a
   0600 DD 7E FF      [19] 1542 	ld	a,-1 (ix)
   0603 DD 8E FB      [19] 1543 	adc	a, -5 (ix)
   0606 47            [ 4] 1544 	ld	b,a
   0607 AF            [ 4] 1545 	xor	a, a
   0608 02            [ 7] 1546 	ld	(bc),a
                           1547 ;ramon.c:351: for(nY = 0; nY < NUM_TILES_HEIGHT-3; nY++)
   0609 DD 34 FA      [23] 1548 	inc	-6 (ix)
   060C 20 03         [12] 1549 	jr	NZ,00180$
   060E DD 34 FB      [23] 1550 	inc	-5 (ix)
   0611                    1551 00180$:
   0611 DD 7E FA      [19] 1552 	ld	a,-6 (ix)
   0614 D6 11         [ 7] 1553 	sub	a, #0x11
   0616 DD 7E FB      [19] 1554 	ld	a,-5 (ix)
   0619 DE 00         [ 7] 1555 	sbc	a, #0x00
   061B 38 DC         [12] 1556 	jr	C,00109$
                           1557 ;ramon.c:350: for(nX = 0; nX < NUM_TILES_WIDTH; nX++)
   061D 21 14 00      [10] 1558 	ld	hl,#0x0014
   0620 19            [11] 1559 	add	hl,de
   0621 EB            [ 4] 1560 	ex	de,hl
   0622 DD 34 FC      [23] 1561 	inc	-4 (ix)
   0625 20 03         [12] 1562 	jr	NZ,00181$
   0627 DD 34 FD      [23] 1563 	inc	-3 (ix)
   062A                    1564 00181$:
   062A DD 7E FC      [19] 1565 	ld	a,-4 (ix)
   062D D6 14         [ 7] 1566 	sub	a, #0x14
   062F DD 7E FD      [19] 1567 	ld	a,-3 (ix)
   0632 DE 00         [ 7] 1568 	sbc	a, #0x00
   0634 38 B5         [12] 1569 	jr	C,00127$
                           1570 ;ramon.c:355: for(nX = 0; nX < NUM_TILES_WIDTH; nX++)
   0636 DD 36 FC 00   [19] 1571 	ld	-4 (ix),#0x00
   063A DD 36 FD 00   [19] 1572 	ld	-3 (ix),#0x00
   063E 11 00 00      [10] 1573 	ld	de,#0x0000
                           1574 ;ramon.c:356: for(nY = 0; nY < 3; nY++)
   0641                    1575 00131$:
   0641 21r02r00      [10] 1576 	ld	hl,#_aBackgroundTiles
   0644 19            [11] 1577 	add	hl,de
   0645 DD 75 FE      [19] 1578 	ld	-2 (ix),l
   0648 DD 74 FF      [19] 1579 	ld	-1 (ix),h
   064B 21 00 00      [10] 1580 	ld	hl,#0x0000
   064E E3            [19] 1581 	ex	(sp), hl
   064F                    1582 00113$:
                           1583 ;ramon.c:357: aBackgroundTiles[nX][nY] = TileType_Banco;
   064F DD 7E FE      [19] 1584 	ld	a,-2 (ix)
   0652 DD 86 FA      [19] 1585 	add	a, -6 (ix)
   0655 4F            [ 4] 1586 	ld	c,a
   0656 DD 7E FF      [19] 1587 	ld	a,-1 (ix)
   0659 DD 8E FB      [19] 1588 	adc	a, -5 (ix)
   065C 47            [ 4] 1589 	ld	b,a
   065D 3E 07         [ 7] 1590 	ld	a,#0x07
   065F 02            [ 7] 1591 	ld	(bc),a
                           1592 ;ramon.c:356: for(nY = 0; nY < 3; nY++)
   0660 DD 34 FA      [23] 1593 	inc	-6 (ix)
   0663 20 03         [12] 1594 	jr	NZ,00182$
   0665 DD 34 FB      [23] 1595 	inc	-5 (ix)
   0668                    1596 00182$:
   0668 DD 7E FA      [19] 1597 	ld	a,-6 (ix)
   066B D6 03         [ 7] 1598 	sub	a, #0x03
   066D DD 7E FB      [19] 1599 	ld	a,-5 (ix)
   0670 DE 00         [ 7] 1600 	sbc	a, #0x00
   0672 38 DB         [12] 1601 	jr	C,00113$
                           1602 ;ramon.c:355: for(nX = 0; nX < NUM_TILES_WIDTH; nX++)
   0674 21 14 00      [10] 1603 	ld	hl,#0x0014
   0677 19            [11] 1604 	add	hl,de
   0678 EB            [ 4] 1605 	ex	de,hl
   0679 DD 34 FC      [23] 1606 	inc	-4 (ix)
   067C 20 03         [12] 1607 	jr	NZ,00183$
   067E DD 34 FD      [23] 1608 	inc	-3 (ix)
   0681                    1609 00183$:
   0681 DD 7E FC      [19] 1610 	ld	a,-4 (ix)
   0684 D6 14         [ 7] 1611 	sub	a, #0x14
   0686 DD 7E FD      [19] 1612 	ld	a,-3 (ix)
   0689 DE 00         [ 7] 1613 	sbc	a, #0x00
   068B 38 B4         [12] 1614 	jr	C,00131$
                           1615 ;ramon.c:359: aBackgroundTiles[12][1] = TileType_Puerta1;
   068D 21rF3r00      [10] 1616 	ld	hl,#(_aBackgroundTiles + 0x00f1)
   0690 36 0E         [10] 1617 	ld	(hl),#0x0E
                           1618 ;ramon.c:360: aBackgroundTiles[13][1] = TileType_Puerta2;
   0692 21r07r01      [10] 1619 	ld	hl,#(_aBackgroundTiles + 0x0105)
   0695 36 0F         [10] 1620 	ld	(hl),#0x0F
                           1621 ;ramon.c:361: aBackgroundTiles[12][2] = TileType_Puerta3;
   0697 21rF4r00      [10] 1622 	ld	hl,#(_aBackgroundTiles + 0x00f2)
   069A 36 10         [10] 1623 	ld	(hl),#0x10
                           1624 ;ramon.c:362: aBackgroundTiles[13][2] = TileType_Puerta4;
   069C 21r08r01      [10] 1625 	ld	hl,#(_aBackgroundTiles + 0x0106)
   069F 36 11         [10] 1626 	ld	(hl),#0x11
                           1627 ;ramon.c:365: for(nX = 0; nX < NUM_TILES_WIDTH; nX++)
   06A1 DD 36 FC 00   [19] 1628 	ld	-4 (ix),#0x00
   06A5 DD 36 FD 00   [19] 1629 	ld	-3 (ix),#0x00
   06A9 11 00 00      [10] 1630 	ld	de,#0x0000
                           1631 ;ramon.c:366: for(nY = 17; nY < NUM_TILES_HEIGHT; nY++)
   06AC                    1632 00135$:
   06AC 21r02r00      [10] 1633 	ld	hl,#_aBackgroundTiles
   06AF 19            [11] 1634 	add	hl,de
   06B0 DD 75 FE      [19] 1635 	ld	-2 (ix),l
   06B3 DD 74 FF      [19] 1636 	ld	-1 (ix),h
   06B6 21 11 00      [10] 1637 	ld	hl,#0x0011
   06B9 E3            [19] 1638 	ex	(sp), hl
   06BA                    1639 00117$:
                           1640 ;ramon.c:367: aBackgroundTiles[nX][nY] = TileType_Carretera;
   06BA DD 7E FE      [19] 1641 	ld	a,-2 (ix)
   06BD DD 86 FA      [19] 1642 	add	a, -6 (ix)
   06C0 4F            [ 4] 1643 	ld	c,a
   06C1 DD 7E FF      [19] 1644 	ld	a,-1 (ix)
   06C4 DD 8E FB      [19] 1645 	adc	a, -5 (ix)
   06C7 47            [ 4] 1646 	ld	b,a
   06C8 3E 0D         [ 7] 1647 	ld	a,#0x0D
   06CA 02            [ 7] 1648 	ld	(bc),a
                           1649 ;ramon.c:366: for(nY = 17; nY < NUM_TILES_HEIGHT; nY++)
   06CB DD 34 FA      [23] 1650 	inc	-6 (ix)
   06CE 20 03         [12] 1651 	jr	NZ,00184$
   06D0 DD 34 FB      [23] 1652 	inc	-5 (ix)
   06D3                    1653 00184$:
   06D3 DD 7E FA      [19] 1654 	ld	a,-6 (ix)
   06D6 D6 14         [ 7] 1655 	sub	a, #0x14
   06D8 DD 7E FB      [19] 1656 	ld	a,-5 (ix)
   06DB DE 00         [ 7] 1657 	sbc	a, #0x00
   06DD 38 DB         [12] 1658 	jr	C,00117$
                           1659 ;ramon.c:365: for(nX = 0; nX < NUM_TILES_WIDTH; nX++)
   06DF 21 14 00      [10] 1660 	ld	hl,#0x0014
   06E2 19            [11] 1661 	add	hl,de
   06E3 EB            [ 4] 1662 	ex	de,hl
   06E4 DD 34 FC      [23] 1663 	inc	-4 (ix)
   06E7 20 03         [12] 1664 	jr	NZ,00185$
   06E9 DD 34 FD      [23] 1665 	inc	-3 (ix)
   06EC                    1666 00185$:
   06EC DD 7E FC      [19] 1667 	ld	a,-4 (ix)
   06EF D6 14         [ 7] 1668 	sub	a, #0x14
   06F1 DD 7E FD      [19] 1669 	ld	a,-3 (ix)
   06F4 DE 00         [ 7] 1670 	sbc	a, #0x00
   06F6 38 B4         [12] 1671 	jr	C,00135$
                           1672 ;ramon.c:371: aPlayer.puntos = 0;
   06F8 21r94r01      [10] 1673 	ld	hl,#(_aPlayer + 0x0002)
   06FB 36 00         [10] 1674 	ld	(hl),#0x00
                           1675 ;ramon.c:372: aPlayer.nX = 1;
   06FD 21r92r01      [10] 1676 	ld	hl,#_aPlayer
   0700 36 01         [10] 1677 	ld	(hl),#0x01
                           1678 ;ramon.c:373: aPlayer.nY = 2;
   0702 21r93r01      [10] 1679 	ld	hl,#(_aPlayer + 0x0001)
   0705 36 02         [10] 1680 	ld	(hl),#0x02
                           1681 ;ramon.c:374: aPlayer.frame = 0;
   0707 21r95r01      [10] 1682 	ld	hl,#(_aPlayer + 0x0003)
   070A 36 00         [10] 1683 	ld	(hl),#0x00
                           1684 ;ramon.c:375: aPlayer.timer = 0;
   070C 21r96r01      [10] 1685 	ld	hl,#(_aPlayer + 0x0004)
   070F 36 00         [10] 1686 	ld	(hl),#0x00
                           1687 ;ramon.c:376: aBackgroundTiles[aPlayer.nX][aPlayer.nY] = TileType_Player_f1;
   0711 21r92r01      [10] 1688 	ld	hl, #_aPlayer + 0
   0714 4E            [ 7] 1689 	ld	c, (hl)
   0715 06 00         [ 7] 1690 	ld	b,#0x00
   0717 69            [ 4] 1691 	ld	l, c
   0718 60            [ 4] 1692 	ld	h, b
   0719 29            [11] 1693 	add	hl, hl
   071A 29            [11] 1694 	add	hl, hl
   071B 09            [11] 1695 	add	hl, bc
   071C 29            [11] 1696 	add	hl, hl
   071D 29            [11] 1697 	add	hl, hl
   071E 01r02r00      [10] 1698 	ld	bc,#_aBackgroundTiles
   0721 09            [11] 1699 	add	hl,bc
   0722 4D            [ 4] 1700 	ld	c,l
   0723 44            [ 4] 1701 	ld	b,h
   0724 21r93r01      [10] 1702 	ld	hl, #(_aPlayer + 0x0001) + 0
   0727 6E            [ 7] 1703 	ld	l,(hl)
   0728 79            [ 4] 1704 	ld	a,c
   0729 85            [ 4] 1705 	add	a, l
   072A 4F            [ 4] 1706 	ld	c,a
   072B 78            [ 4] 1707 	ld	a,b
   072C CE 00         [ 7] 1708 	adc	a, #0x00
   072E 47            [ 4] 1709 	ld	b,a
   072F 3E 08         [ 7] 1710 	ld	a,#0x08
   0731 02            [ 7] 1711 	ld	(bc),a
                           1712 ;ramon.c:377: aPlayer.anterior = TileType_Banco;
   0732 21r97r01      [10] 1713 	ld	hl,#(_aPlayer + 0x0005)
   0735 36 07         [10] 1714 	ld	(hl),#0x07
                           1715 ;ramon.c:380: aBolsa.nX = aPlayer.nX;
   0737 3Ar92r01      [13] 1716 	ld	a, (#_aPlayer + 0)
   073A 32r98r01      [13] 1717 	ld	(#_aBolsa),a
                           1718 ;ramon.c:381: aBolsa.nY = 2;
   073D 21r99r01      [10] 1719 	ld	hl,#(_aBolsa + 0x0001)
   0740 36 02         [10] 1720 	ld	(hl),#0x02
                           1721 ;ramon.c:382: aBolsa.activo = 0;
   0742 21r9Ar01      [10] 1722 	ld	hl,#(_aBolsa + 0x0002)
   0745 36 00         [10] 1723 	ld	(hl),#0x00
                           1724 ;ramon.c:383: aBolsa.anterior = TileType_None; // Al lanzar la bolsa
   0747 21r9Br01      [10] 1725 	ld	hl,#(_aBolsa + 0x0003)
   074A 36 00         [10] 1726 	ld	(hl),#0x00
                           1727 ;ramon.c:387: aPoli1.nX = 1;
   074C 21r9Cr01      [10] 1728 	ld	hl,#_aPoli1
   074F 36 01         [10] 1729 	ld	(hl),#0x01
                           1730 ;ramon.c:388: aPoli1.nY = 6;
   0751 21r9Dr01      [10] 1731 	ld	hl,#(_aPoli1 + 0x0001)
   0754 36 06         [10] 1732 	ld	(hl),#0x06
                           1733 ;ramon.c:389: aPoli1.timer = 0;
   0756 21r9Er01      [10] 1734 	ld	hl,#(_aPoli1 + 0x0002)
   0759 36 00         [10] 1735 	ld	(hl),#0x00
                           1736 ;ramon.c:390: aPoli1.frame = 0;
   075B 21r9Fr01      [10] 1737 	ld	hl,#(_aPoli1 + 0x0003)
   075E 36 00         [10] 1738 	ld	(hl),#0x00
                           1739 ;ramon.c:392: aBackgroundTiles[aPoli1.nX][aPoli1.nY] = TileType_Poli_f1;
   0760 21r9Cr01      [10] 1740 	ld	hl, #_aPoli1 + 0
   0763 4E            [ 7] 1741 	ld	c, (hl)
   0764 06 00         [ 7] 1742 	ld	b,#0x00
   0766 69            [ 4] 1743 	ld	l, c
   0767 60            [ 4] 1744 	ld	h, b
   0768 29            [11] 1745 	add	hl, hl
   0769 29            [11] 1746 	add	hl, hl
   076A 09            [11] 1747 	add	hl, bc
   076B 29            [11] 1748 	add	hl, hl
   076C 29            [11] 1749 	add	hl, hl
   076D 01r02r00      [10] 1750 	ld	bc,#_aBackgroundTiles
   0770 09            [11] 1751 	add	hl,bc
   0771 4D            [ 4] 1752 	ld	c,l
   0772 44            [ 4] 1753 	ld	b,h
   0773 21r9Dr01      [10] 1754 	ld	hl, #(_aPoli1 + 0x0001) + 0
   0776 6E            [ 7] 1755 	ld	l,(hl)
   0777 79            [ 4] 1756 	ld	a,c
   0778 85            [ 4] 1757 	add	a, l
   0779 4F            [ 4] 1758 	ld	c,a
   077A 78            [ 4] 1759 	ld	a,b
   077B CE 00         [ 7] 1760 	adc	a, #0x00
   077D 47            [ 4] 1761 	ld	b,a
   077E 3E 0A         [ 7] 1762 	ld	a,#0x0A
   0780 02            [ 7] 1763 	ld	(bc),a
                           1764 ;ramon.c:395: aPoli2.nX = 10;
   0781 21rA0r01      [10] 1765 	ld	hl,#_aPoli2
   0784 36 0A         [10] 1766 	ld	(hl),#0x0A
                           1767 ;ramon.c:396: aPoli2.nY = 10;
   0786 21rA1r01      [10] 1768 	ld	hl,#(_aPoli2 + 0x0001)
   0789 36 0A         [10] 1769 	ld	(hl),#0x0A
                           1770 ;ramon.c:397: aPoli2.timer = 0;
   078B 21rA2r01      [10] 1771 	ld	hl,#(_aPoli2 + 0x0002)
   078E 36 00         [10] 1772 	ld	(hl),#0x00
                           1773 ;ramon.c:398: aPoli1.frame = 0;
   0790 21r9Fr01      [10] 1774 	ld	hl,#(_aPoli1 + 0x0003)
   0793 36 00         [10] 1775 	ld	(hl),#0x00
                           1776 ;ramon.c:400: aBackgroundTiles[aPoli2.nX][aPoli2.nY] = TileType_Poli_f1;
   0795 21rA0r01      [10] 1777 	ld	hl, #_aPoli2 + 0
   0798 4E            [ 7] 1778 	ld	c, (hl)
   0799 06 00         [ 7] 1779 	ld	b,#0x00
   079B 69            [ 4] 1780 	ld	l, c
   079C 60            [ 4] 1781 	ld	h, b
   079D 29            [11] 1782 	add	hl, hl
   079E 29            [11] 1783 	add	hl, hl
   079F 09            [11] 1784 	add	hl, bc
   07A0 29            [11] 1785 	add	hl, hl
   07A1 29            [11] 1786 	add	hl, hl
   07A2 01r02r00      [10] 1787 	ld	bc,#_aBackgroundTiles
   07A5 09            [11] 1788 	add	hl,bc
   07A6 4D            [ 4] 1789 	ld	c,l
   07A7 44            [ 4] 1790 	ld	b,h
   07A8 21rA1r01      [10] 1791 	ld	hl, #(_aPoli2 + 0x0001) + 0
   07AB 6E            [ 7] 1792 	ld	l,(hl)
   07AC 79            [ 4] 1793 	ld	a,c
   07AD 85            [ 4] 1794 	add	a, l
   07AE 4F            [ 4] 1795 	ld	c,a
   07AF 78            [ 4] 1796 	ld	a,b
   07B0 CE 00         [ 7] 1797 	adc	a, #0x00
   07B2 47            [ 4] 1798 	ld	b,a
   07B3 3E 0A         [ 7] 1799 	ld	a,#0x0A
   07B5 02            [ 7] 1800 	ld	(bc),a
                           1801 ;ramon.c:403: aPoli3.nX = 18;
   07B6 21rA4r01      [10] 1802 	ld	hl,#_aPoli3
   07B9 36 12         [10] 1803 	ld	(hl),#0x12
                           1804 ;ramon.c:404: aPoli3.nY = 14;
   07BB 21rA5r01      [10] 1805 	ld	hl,#(_aPoli3 + 0x0001)
   07BE 36 0E         [10] 1806 	ld	(hl),#0x0E
                           1807 ;ramon.c:405: aPoli3.timer = 0;
   07C0 21rA6r01      [10] 1808 	ld	hl,#(_aPoli3 + 0x0002)
   07C3 36 00         [10] 1809 	ld	(hl),#0x00
                           1810 ;ramon.c:406: aPoli1.frame = 0;
   07C5 21r9Fr01      [10] 1811 	ld	hl,#(_aPoli1 + 0x0003)
   07C8 36 00         [10] 1812 	ld	(hl),#0x00
                           1813 ;ramon.c:408: aBackgroundTiles[aPoli3.nX][aPoli3.nY] = TileType_Poli_f1;
   07CA 21rA4r01      [10] 1814 	ld	hl, #_aPoli3 + 0
   07CD 4E            [ 7] 1815 	ld	c, (hl)
   07CE 06 00         [ 7] 1816 	ld	b,#0x00
   07D0 69            [ 4] 1817 	ld	l, c
   07D1 60            [ 4] 1818 	ld	h, b
   07D2 29            [11] 1819 	add	hl, hl
   07D3 29            [11] 1820 	add	hl, hl
   07D4 09            [11] 1821 	add	hl, bc
   07D5 29            [11] 1822 	add	hl, hl
   07D6 29            [11] 1823 	add	hl, hl
   07D7 01r02r00      [10] 1824 	ld	bc,#_aBackgroundTiles
   07DA 09            [11] 1825 	add	hl,bc
   07DB 4D            [ 4] 1826 	ld	c,l
   07DC 44            [ 4] 1827 	ld	b,h
   07DD 21rA5r01      [10] 1828 	ld	hl, #(_aPoli3 + 0x0001) + 0
   07E0 6E            [ 7] 1829 	ld	l,(hl)
   07E1 79            [ 4] 1830 	ld	a,c
   07E2 85            [ 4] 1831 	add	a, l
   07E3 4F            [ 4] 1832 	ld	c,a
   07E4 78            [ 4] 1833 	ld	a,b
   07E5 CE 00         [ 7] 1834 	adc	a, #0x00
   07E7 47            [ 4] 1835 	ld	b,a
   07E8 3E 0A         [ 7] 1836 	ld	a,#0x0A
   07EA 02            [ 7] 1837 	ld	(bc),a
                           1838 ;ramon.c:411: aCamion[0].nX = 16;
   07EB 21rA8r01      [10] 1839 	ld	hl,#_aCamion
   07EE 36 10         [10] 1840 	ld	(hl),#0x10
                           1841 ;ramon.c:412: aCamion[0].nY = 18;
   07F0 21rA9r01      [10] 1842 	ld	hl,#(_aCamion + 0x0001)
   07F3 36 12         [10] 1843 	ld	(hl),#0x12
                           1844 ;ramon.c:413: aCamion[1].nX = 17;
   07F5 21rAAr01      [10] 1845 	ld	hl,#(_aCamion + 0x0002)
   07F8 36 11         [10] 1846 	ld	(hl),#0x11
                           1847 ;ramon.c:414: aCamion[1].nY = 18;
   07FA 21rABr01      [10] 1848 	ld	hl,#(_aCamion + 0x0003)
   07FD 36 12         [10] 1849 	ld	(hl),#0x12
                           1850 ;ramon.c:415: aCamion[2].nX = 18;
   07FF 21rACr01      [10] 1851 	ld	hl,#(_aCamion + 0x0004)
   0802 36 12         [10] 1852 	ld	(hl),#0x12
                           1853 ;ramon.c:416: aCamion[2].nY = 18;
   0804 21rADr01      [10] 1854 	ld	hl,#(_aCamion + 0x0005)
   0807 36 12         [10] 1855 	ld	(hl),#0x12
                           1856 ;ramon.c:417: aCamion[3].nX = 16;
   0809 21rAEr01      [10] 1857 	ld	hl,#(_aCamion + 0x0006)
   080C 36 10         [10] 1858 	ld	(hl),#0x10
                           1859 ;ramon.c:418: aCamion[3].nY = 19;
   080E 21rAFr01      [10] 1860 	ld	hl,#(_aCamion + 0x0007)
   0811 36 13         [10] 1861 	ld	(hl),#0x13
                           1862 ;ramon.c:419: aCamion[4].nX = 17;
   0813 21rB0r01      [10] 1863 	ld	hl,#(_aCamion + 0x0008)
   0816 36 11         [10] 1864 	ld	(hl),#0x11
                           1865 ;ramon.c:420: aCamion[4].nY = 19;
   0818 21rB1r01      [10] 1866 	ld	hl,#(_aCamion + 0x0009)
   081B 36 13         [10] 1867 	ld	(hl),#0x13
                           1868 ;ramon.c:421: aCamion[5].nX = 18;
   081D 21rB2r01      [10] 1869 	ld	hl,#(_aCamion + 0x000a)
   0820 36 12         [10] 1870 	ld	(hl),#0x12
                           1871 ;ramon.c:422: aCamion[5].nY = 19;
   0822 21rB3r01      [10] 1872 	ld	hl,#(_aCamion + 0x000b)
   0825 36 13         [10] 1873 	ld	(hl),#0x13
                           1874 ;ramon.c:425: aBackgroundTiles[aCamion[0].nX][aCamion[0].nY] = TileType_Camion1;
   0827 21rA8r01      [10] 1875 	ld	hl, #_aCamion + 0
   082A 4E            [ 7] 1876 	ld	c, (hl)
   082B 06 00         [ 7] 1877 	ld	b,#0x00
   082D 69            [ 4] 1878 	ld	l, c
   082E 60            [ 4] 1879 	ld	h, b
   082F 29            [11] 1880 	add	hl, hl
   0830 29            [11] 1881 	add	hl, hl
   0831 09            [11] 1882 	add	hl, bc
   0832 29            [11] 1883 	add	hl, hl
   0833 29            [11] 1884 	add	hl, hl
   0834 01r02r00      [10] 1885 	ld	bc,#_aBackgroundTiles
   0837 09            [11] 1886 	add	hl,bc
   0838 4D            [ 4] 1887 	ld	c,l
   0839 44            [ 4] 1888 	ld	b,h
   083A 21rA9r01      [10] 1889 	ld	hl, #(_aCamion + 0x0001) + 0
   083D 6E            [ 7] 1890 	ld	l,(hl)
   083E 79            [ 4] 1891 	ld	a,c
   083F 85            [ 4] 1892 	add	a, l
   0840 4F            [ 4] 1893 	ld	c,a
   0841 78            [ 4] 1894 	ld	a,b
   0842 CE 00         [ 7] 1895 	adc	a, #0x00
   0844 47            [ 4] 1896 	ld	b,a
   0845 3E 01         [ 7] 1897 	ld	a,#0x01
   0847 02            [ 7] 1898 	ld	(bc),a
                           1899 ;ramon.c:426: aBackgroundTiles[aCamion[1].nX][aCamion[1].nY] = TileType_Camion2;
   0848 21rAAr01      [10] 1900 	ld	hl, #_aCamion + 2
   084B 4E            [ 7] 1901 	ld	c, (hl)
   084C 06 00         [ 7] 1902 	ld	b,#0x00
   084E 69            [ 4] 1903 	ld	l, c
   084F 60            [ 4] 1904 	ld	h, b
   0850 29            [11] 1905 	add	hl, hl
   0851 29            [11] 1906 	add	hl, hl
   0852 09            [11] 1907 	add	hl, bc
   0853 29            [11] 1908 	add	hl, hl
   0854 29            [11] 1909 	add	hl, hl
   0855 01r02r00      [10] 1910 	ld	bc,#_aBackgroundTiles
   0858 09            [11] 1911 	add	hl,bc
   0859 4D            [ 4] 1912 	ld	c,l
   085A 44            [ 4] 1913 	ld	b,h
   085B 21rABr01      [10] 1914 	ld	hl, #(_aCamion + 0x0003) + 0
   085E 6E            [ 7] 1915 	ld	l,(hl)
   085F 79            [ 4] 1916 	ld	a,c
   0860 85            [ 4] 1917 	add	a, l
   0861 4F            [ 4] 1918 	ld	c,a
   0862 78            [ 4] 1919 	ld	a,b
   0863 CE 00         [ 7] 1920 	adc	a, #0x00
   0865 47            [ 4] 1921 	ld	b,a
   0866 3E 02         [ 7] 1922 	ld	a,#0x02
   0868 02            [ 7] 1923 	ld	(bc),a
                           1924 ;ramon.c:427: aBackgroundTiles[aCamion[2].nX][aCamion[2].nY] = TileType_Camion3;
   0869 21rACr01      [10] 1925 	ld	hl, #_aCamion + 4
   086C 4E            [ 7] 1926 	ld	c, (hl)
   086D 06 00         [ 7] 1927 	ld	b,#0x00
   086F 69            [ 4] 1928 	ld	l, c
   0870 60            [ 4] 1929 	ld	h, b
   0871 29            [11] 1930 	add	hl, hl
   0872 29            [11] 1931 	add	hl, hl
   0873 09            [11] 1932 	add	hl, bc
   0874 29            [11] 1933 	add	hl, hl
   0875 29            [11] 1934 	add	hl, hl
   0876 01r02r00      [10] 1935 	ld	bc,#_aBackgroundTiles
   0879 09            [11] 1936 	add	hl,bc
   087A 4D            [ 4] 1937 	ld	c,l
   087B 44            [ 4] 1938 	ld	b,h
   087C 21rADr01      [10] 1939 	ld	hl, #(_aCamion + 0x0005) + 0
   087F 6E            [ 7] 1940 	ld	l,(hl)
   0880 79            [ 4] 1941 	ld	a,c
   0881 85            [ 4] 1942 	add	a, l
   0882 4F            [ 4] 1943 	ld	c,a
   0883 78            [ 4] 1944 	ld	a,b
   0884 CE 00         [ 7] 1945 	adc	a, #0x00
   0886 47            [ 4] 1946 	ld	b,a
   0887 3E 03         [ 7] 1947 	ld	a,#0x03
   0889 02            [ 7] 1948 	ld	(bc),a
                           1949 ;ramon.c:429: aBackgroundTiles[aCamion[3].nX][aCamion[3].nY] = TileType_Camion4;
   088A 21rAEr01      [10] 1950 	ld	hl, #_aCamion + 6
   088D 4E            [ 7] 1951 	ld	c, (hl)
   088E 06 00         [ 7] 1952 	ld	b,#0x00
   0890 69            [ 4] 1953 	ld	l, c
   0891 60            [ 4] 1954 	ld	h, b
   0892 29            [11] 1955 	add	hl, hl
   0893 29            [11] 1956 	add	hl, hl
   0894 09            [11] 1957 	add	hl, bc
   0895 29            [11] 1958 	add	hl, hl
   0896 29            [11] 1959 	add	hl, hl
   0897 01r02r00      [10] 1960 	ld	bc,#_aBackgroundTiles
   089A 09            [11] 1961 	add	hl,bc
   089B 4D            [ 4] 1962 	ld	c,l
   089C 44            [ 4] 1963 	ld	b,h
   089D 21rAFr01      [10] 1964 	ld	hl, #(_aCamion + 0x0007) + 0
   08A0 6E            [ 7] 1965 	ld	l,(hl)
   08A1 79            [ 4] 1966 	ld	a,c
   08A2 85            [ 4] 1967 	add	a, l
   08A3 4F            [ 4] 1968 	ld	c,a
   08A4 78            [ 4] 1969 	ld	a,b
   08A5 CE 00         [ 7] 1970 	adc	a, #0x00
   08A7 47            [ 4] 1971 	ld	b,a
   08A8 3E 04         [ 7] 1972 	ld	a,#0x04
   08AA 02            [ 7] 1973 	ld	(bc),a
                           1974 ;ramon.c:430: aBackgroundTiles[aCamion[4].nX][aCamion[4].nY] = TileType_Camion5;
   08AB 21rB0r01      [10] 1975 	ld	hl, #_aCamion + 8
   08AE 4E            [ 7] 1976 	ld	c, (hl)
   08AF 06 00         [ 7] 1977 	ld	b,#0x00
   08B1 69            [ 4] 1978 	ld	l, c
   08B2 60            [ 4] 1979 	ld	h, b
   08B3 29            [11] 1980 	add	hl, hl
   08B4 29            [11] 1981 	add	hl, hl
   08B5 09            [11] 1982 	add	hl, bc
   08B6 29            [11] 1983 	add	hl, hl
   08B7 29            [11] 1984 	add	hl, hl
   08B8 01r02r00      [10] 1985 	ld	bc,#_aBackgroundTiles
   08BB 09            [11] 1986 	add	hl,bc
   08BC 4D            [ 4] 1987 	ld	c,l
   08BD 44            [ 4] 1988 	ld	b,h
   08BE 21rB1r01      [10] 1989 	ld	hl, #(_aCamion + 0x0009) + 0
   08C1 6E            [ 7] 1990 	ld	l,(hl)
   08C2 79            [ 4] 1991 	ld	a,c
   08C3 85            [ 4] 1992 	add	a, l
   08C4 4F            [ 4] 1993 	ld	c,a
   08C5 78            [ 4] 1994 	ld	a,b
   08C6 CE 00         [ 7] 1995 	adc	a, #0x00
   08C8 47            [ 4] 1996 	ld	b,a
   08C9 3E 05         [ 7] 1997 	ld	a,#0x05
   08CB 02            [ 7] 1998 	ld	(bc),a
                           1999 ;ramon.c:431: aBackgroundTiles[aCamion[5].nX][aCamion[5].nY] = TileType_Camion6;
   08CC 21rB2r01      [10] 2000 	ld	hl, #_aCamion + 10
   08CF 4E            [ 7] 2001 	ld	c, (hl)
   08D0 06 00         [ 7] 2002 	ld	b,#0x00
   08D2 69            [ 4] 2003 	ld	l, c
   08D3 60            [ 4] 2004 	ld	h, b
   08D4 29            [11] 2005 	add	hl, hl
   08D5 29            [11] 2006 	add	hl, hl
   08D6 09            [11] 2007 	add	hl, bc
   08D7 29            [11] 2008 	add	hl, hl
   08D8 29            [11] 2009 	add	hl, hl
   08D9 01r02r00      [10] 2010 	ld	bc,#_aBackgroundTiles
   08DC 09            [11] 2011 	add	hl,bc
   08DD 4D            [ 4] 2012 	ld	c,l
   08DE 44            [ 4] 2013 	ld	b,h
   08DF 21rB3r01      [10] 2014 	ld	hl, #(_aCamion + 0x000b) + 0
   08E2 6E            [ 7] 2015 	ld	l,(hl)
   08E3 79            [ 4] 2016 	ld	a,c
   08E4 85            [ 4] 2017 	add	a, l
   08E5 4F            [ 4] 2018 	ld	c,a
   08E6 78            [ 4] 2019 	ld	a,b
   08E7 CE 00         [ 7] 2020 	adc	a, #0x00
   08E9 47            [ 4] 2021 	ld	b,a
   08EA 3E 06         [ 7] 2022 	ld	a,#0x06
   08EC 02            [ 7] 2023 	ld	(bc),a
                           2024 ;ramon.c:434: for(nX = 0; nX < NUM_TILES_WIDTH; nX++)
   08ED DD 36 FC 00   [19] 2025 	ld	-4 (ix),#0x00
   08F1 DD 36 FD 00   [19] 2026 	ld	-3 (ix),#0x00
                           2027 ;ramon.c:435: for(nY = 0; nY < NUM_TILES_HEIGHT; nY++)
   08F5                    2028 00139$:
   08F5 11 00 00      [10] 2029 	ld	de,#0x0000
   08F8                    2030 00121$:
                           2031 ;ramon.c:436: DrawTile(nX, nY);
   08F8 6B            [ 4] 2032 	ld	l,e
   08F9 DD 4E FC      [19] 2033 	ld	c,-4 (ix)
   08FC D5            [11] 2034 	push	de
   08FD 7D            [ 4] 2035 	ld	a,l
   08FE F5            [11] 2036 	push	af
   08FF 33            [ 6] 2037 	inc	sp
   0900 79            [ 4] 2038 	ld	a,c
   0901 F5            [11] 2039 	push	af
   0902 33            [ 6] 2040 	inc	sp
   0903 CDrD9r03      [17] 2041 	call	_DrawTile
   0906 F1            [10] 2042 	pop	af
   0907 D1            [10] 2043 	pop	de
                           2044 ;ramon.c:435: for(nY = 0; nY < NUM_TILES_HEIGHT; nY++)
   0908 13            [ 6] 2045 	inc	de
   0909 7B            [ 4] 2046 	ld	a,e
   090A D6 14         [ 7] 2047 	sub	a, #0x14
   090C 7A            [ 4] 2048 	ld	a,d
   090D DE 00         [ 7] 2049 	sbc	a, #0x00
   090F 38 E7         [12] 2050 	jr	C,00121$
                           2051 ;ramon.c:434: for(nX = 0; nX < NUM_TILES_WIDTH; nX++)
   0911 DD 34 FC      [23] 2052 	inc	-4 (ix)
   0914 20 03         [12] 2053 	jr	NZ,00186$
   0916 DD 34 FD      [23] 2054 	inc	-3 (ix)
   0919                    2055 00186$:
   0919 DD 7E FC      [19] 2056 	ld	a,-4 (ix)
   091C D6 14         [ 7] 2057 	sub	a, #0x14
   091E DD 7E FD      [19] 2058 	ld	a,-3 (ix)
   0921 DE 00         [ 7] 2059 	sbc	a, #0x00
   0923 38 D0         [12] 2060 	jr	C,00139$
   0925 DD F9         [10] 2061 	ld	sp,ix
   0927 DD E1         [14] 2062 	pop	ix
   0929 C9            [10] 2063 	ret
   092A                    2064 _InitGame_end::
                           2065 ;ramon.c:441: void MovePlayer()
                           2066 ;	---------------------------------
                           2067 ; Function MovePlayer
                           2068 ; ---------------------------------
   092A                    2069 _MovePlayer_start::
   092A                    2070 _MovePlayer:
   092A DD E5         [15] 2071 	push	ix
   092C DD 21 00 00   [14] 2072 	ld	ix,#0
   0930 DD 39         [15] 2073 	add	ix,sp
   0932 3B            [ 6] 2074 	dec	sp
                           2075 ;ramon.c:443: char nChar = GetChar();
   0933 CDr52r03      [17] 2076 	call	_GetChar
   0936 DD 75 FF      [19] 2077 	ld	-1 (ix),l
                           2078 ;ramon.c:444: unsigned char moviendose = 0;
   0939 06 00         [ 7] 2079 	ld	b,#0x00
                           2080 ;ramon.c:446: if(nChar == -13 || nChar == -14) moviendose = 1;
   093B DD 7E FF      [19] 2081 	ld	a,-1 (ix)
   093E D6 F2         [ 7] 2082 	sub	a, #0xF2
   0940 20 04         [12] 2083 	jr	NZ,00156$
   0942 3E 01         [ 7] 2084 	ld	a,#0x01
   0944 18 01         [12] 2085 	jr	00157$
   0946                    2086 00156$:
   0946 AF            [ 4] 2087 	xor	a,a
   0947                    2088 00157$:
   0947 5F            [ 4] 2089 	ld	e,a
   0948 DD 7E FF      [19] 2090 	ld	a,-1 (ix)
   094B D6 F3         [ 7] 2091 	sub	a, #0xF3
   094D 20 04         [12] 2092 	jr	NZ,00158$
   094F 3E 01         [ 7] 2093 	ld	a,#0x01
   0951 18 01         [12] 2094 	jr	00159$
   0953                    2095 00158$:
   0953 AF            [ 4] 2096 	xor	a,a
   0954                    2097 00159$:
   0954 6F            [ 4] 2098 	ld	l,a
   0955 B7            [ 4] 2099 	or	a,a
   0956 20 03         [12] 2100 	jr	NZ,00101$
   0958 B3            [ 4] 2101 	or	a,e
   0959 28 02         [12] 2102 	jr	Z,00102$
   095B                    2103 00101$:
   095B 06 01         [ 7] 2104 	ld	b,#0x01
   095D                    2105 00102$:
                           2106 ;ramon.c:448: if(moviendose == 1) {
   095D 05            [ 4] 2107 	dec	b
   095E C2rA1r0A      [10] 2108 	jp	NZ,00117$
                           2109 ;ramon.c:449: if(nChar == -13) //Right
   0961 7D            [ 4] 2110 	ld	a,l
   0962 B7            [ 4] 2111 	or	a, a
   0963 CArD6r09      [10] 2112 	jp	Z,00111$
                           2113 ;ramon.c:451: if(aPlayer.nX < 19)
   0966 21r92r01      [10] 2114 	ld	hl, #_aPlayer + 0
   0969 46            [ 7] 2115 	ld	b,(hl)
   096A 78            [ 4] 2116 	ld	a,b
   096B D6 13         [ 7] 2117 	sub	a, #0x13
   096D D2r45r0A      [10] 2118 	jp	NC,00112$
                           2119 ;ramon.c:453: aBackgroundTiles[aPlayer.nX][aPlayer.nY] = aPlayer.anterior;
   0970 48            [ 4] 2120 	ld	c,b
   0971 06 00         [ 7] 2121 	ld	b,#0x00
   0973 69            [ 4] 2122 	ld	l, c
   0974 60            [ 4] 2123 	ld	h, b
   0975 29            [11] 2124 	add	hl, hl
   0976 29            [11] 2125 	add	hl, hl
   0977 09            [11] 2126 	add	hl, bc
   0978 29            [11] 2127 	add	hl, hl
   0979 29            [11] 2128 	add	hl, hl
   097A 45            [ 4] 2129 	ld	b,l
   097B 54            [ 4] 2130 	ld	d,h
   097C 3Er02         [ 7] 2131 	ld	a,#<(_aBackgroundTiles)
   097E 80            [ 4] 2132 	add	a, b
   097F 47            [ 4] 2133 	ld	b,a
   0980 3Es00         [ 7] 2134 	ld	a,#>(_aBackgroundTiles)
   0982 8A            [ 4] 2135 	adc	a, d
   0983 57            [ 4] 2136 	ld	d,a
   0984 21r93r01      [10] 2137 	ld	hl, #(_aPlayer + 0x0001) + 0
   0987 6E            [ 7] 2138 	ld	l,(hl)
   0988 78            [ 4] 2139 	ld	a,b
   0989 85            [ 4] 2140 	add	a, l
   098A 47            [ 4] 2141 	ld	b,a
   098B 7A            [ 4] 2142 	ld	a,d
   098C CE 00         [ 7] 2143 	adc	a, #0x00
   098E 57            [ 4] 2144 	ld	d,a
   098F 3Ar97r01      [13] 2145 	ld	a, (#(_aPlayer + 0x0005) + 0)
   0992 68            [ 4] 2146 	ld	l, b
   0993 62            [ 4] 2147 	ld	h, d
   0994 77            [ 7] 2148 	ld	(hl),a
                           2149 ;ramon.c:454: DrawTile(aPlayer.nX, aPlayer.nY);
   0995 21r93r01      [10] 2150 	ld	hl, #(_aPlayer + 0x0001) + 0
   0998 46            [ 7] 2151 	ld	b,(hl)
   0999 21r92r01      [10] 2152 	ld	hl, #_aPlayer + 0
   099C 4E            [ 7] 2153 	ld	c, (hl)
   099D C5            [11] 2154 	push	bc
   099E CDrD9r03      [17] 2155 	call	_DrawTile
   09A1 F1            [10] 2156 	pop	af
                           2157 ;ramon.c:455: aPlayer.anterior = aBackgroundTiles[aPlayer.nX+1][aPlayer.nY];
   09A2 21r92r01      [10] 2158 	ld	hl, #_aPlayer + 0
   09A5 6E            [ 7] 2159 	ld	l,(hl)
   09A6 2C            [ 4] 2160 	inc	l
   09A7 4D            [ 4] 2161 	ld	c,l
   09A8 06 00         [ 7] 2162 	ld	b,#0x00
   09AA 69            [ 4] 2163 	ld	l, c
   09AB 60            [ 4] 2164 	ld	h, b
   09AC 29            [11] 2165 	add	hl, hl
   09AD 29            [11] 2166 	add	hl, hl
   09AE 09            [11] 2167 	add	hl, bc
   09AF 29            [11] 2168 	add	hl, hl
   09B0 29            [11] 2169 	add	hl, hl
   09B1 45            [ 4] 2170 	ld	b,l
   09B2 54            [ 4] 2171 	ld	d,h
   09B3 3Er02         [ 7] 2172 	ld	a,#<(_aBackgroundTiles)
   09B5 80            [ 4] 2173 	add	a, b
   09B6 47            [ 4] 2174 	ld	b,a
   09B7 3Es00         [ 7] 2175 	ld	a,#>(_aBackgroundTiles)
   09B9 8A            [ 4] 2176 	adc	a, d
   09BA 57            [ 4] 2177 	ld	d,a
   09BB 21r93r01      [10] 2178 	ld	hl, #(_aPlayer + 0x0001) + 0
   09BE 6E            [ 7] 2179 	ld	l,(hl)
   09BF 78            [ 4] 2180 	ld	a,b
   09C0 85            [ 4] 2181 	add	a, l
   09C1 47            [ 4] 2182 	ld	b,a
   09C2 7A            [ 4] 2183 	ld	a,d
   09C3 CE 00         [ 7] 2184 	adc	a, #0x00
   09C5 67            [ 4] 2185 	ld	h, a
   09C6 68            [ 4] 2186 	ld	l, b
   09C7 7E            [ 7] 2187 	ld	a,(hl)
   09C8 32r97r01      [13] 2188 	ld	(#(_aPlayer + 0x0005)),a
                           2189 ;ramon.c:456: aPlayer.nX++;
   09CB 3Ar92r01      [13] 2190 	ld	a,(#_aPlayer + 0)
   09CE 3C            [ 4] 2191 	inc	a
   09CF 21r92r01      [10] 2192 	ld	hl,#_aPlayer
   09D2 77            [ 7] 2193 	ld	(hl),a
   09D3 C3r45r0A      [10] 2194 	jp	00112$
   09D6                    2195 00111$:
                           2196 ;ramon.c:459: else if(nChar == -14) //Left
   09D6 7B            [ 4] 2197 	ld	a,e
   09D7 B7            [ 4] 2198 	or	a, a
   09D8 28 6B         [12] 2199 	jr	Z,00112$
                           2200 ;ramon.c:461: if(aPlayer.nX > 0)
   09DA 21r92r01      [10] 2201 	ld	hl, #_aPlayer + 0
   09DD 46            [ 7] 2202 	ld	b,(hl)
   09DE 78            [ 4] 2203 	ld	a,b
   09DF B7            [ 4] 2204 	or	a, a
   09E0 28 63         [12] 2205 	jr	Z,00112$
                           2206 ;ramon.c:463: aBackgroundTiles[aPlayer.nX][aPlayer.nY] = aPlayer.anterior;
   09E2 48            [ 4] 2207 	ld	c,b
   09E3 06 00         [ 7] 2208 	ld	b,#0x00
   09E5 69            [ 4] 2209 	ld	l, c
   09E6 60            [ 4] 2210 	ld	h, b
   09E7 29            [11] 2211 	add	hl, hl
   09E8 29            [11] 2212 	add	hl, hl
   09E9 09            [11] 2213 	add	hl, bc
   09EA 29            [11] 2214 	add	hl, hl
   09EB 29            [11] 2215 	add	hl, hl
   09EC 45            [ 4] 2216 	ld	b,l
   09ED 5C            [ 4] 2217 	ld	e,h
   09EE 3Er02         [ 7] 2218 	ld	a,#<(_aBackgroundTiles)
   09F0 80            [ 4] 2219 	add	a, b
   09F1 47            [ 4] 2220 	ld	b,a
   09F2 3Es00         [ 7] 2221 	ld	a,#>(_aBackgroundTiles)
   09F4 8B            [ 4] 2222 	adc	a, e
   09F5 5F            [ 4] 2223 	ld	e,a
   09F6 21r93r01      [10] 2224 	ld	hl, #(_aPlayer + 0x0001) + 0
   09F9 6E            [ 7] 2225 	ld	l,(hl)
   09FA 78            [ 4] 2226 	ld	a,b
   09FB 85            [ 4] 2227 	add	a, l
   09FC 47            [ 4] 2228 	ld	b,a
   09FD 7B            [ 4] 2229 	ld	a,e
   09FE CE 00         [ 7] 2230 	adc	a, #0x00
   0A00 5F            [ 4] 2231 	ld	e,a
   0A01 3Ar97r01      [13] 2232 	ld	a, (#(_aPlayer + 0x0005) + 0)
   0A04 68            [ 4] 2233 	ld	l, b
   0A05 63            [ 4] 2234 	ld	h, e
   0A06 77            [ 7] 2235 	ld	(hl),a
                           2236 ;ramon.c:464: DrawTile(aPlayer.nX, aPlayer.nY);
   0A07 21r93r01      [10] 2237 	ld	hl, #(_aPlayer + 0x0001) + 0
   0A0A 46            [ 7] 2238 	ld	b,(hl)
   0A0B 21r92r01      [10] 2239 	ld	hl, #_aPlayer + 0
   0A0E 5E            [ 7] 2240 	ld	e,(hl)
   0A0F C5            [11] 2241 	push	bc
   0A10 33            [ 6] 2242 	inc	sp
   0A11 7B            [ 4] 2243 	ld	a,e
   0A12 F5            [11] 2244 	push	af
   0A13 33            [ 6] 2245 	inc	sp
   0A14 CDrD9r03      [17] 2246 	call	_DrawTile
   0A17 F1            [10] 2247 	pop	af
                           2248 ;ramon.c:465: aPlayer.anterior = aBackgroundTiles[aPlayer.nX-1][aPlayer.nY];
   0A18 21r92r01      [10] 2249 	ld	hl, #_aPlayer + 0
   0A1B 6E            [ 7] 2250 	ld	l,(hl)
   0A1C 2D            [ 4] 2251 	dec	l
   0A1D 4D            [ 4] 2252 	ld	c,l
   0A1E 06 00         [ 7] 2253 	ld	b,#0x00
   0A20 69            [ 4] 2254 	ld	l, c
   0A21 60            [ 4] 2255 	ld	h, b
   0A22 29            [11] 2256 	add	hl, hl
   0A23 29            [11] 2257 	add	hl, hl
   0A24 09            [11] 2258 	add	hl, bc
   0A25 29            [11] 2259 	add	hl, hl
   0A26 29            [11] 2260 	add	hl, hl
   0A27 11r02r00      [10] 2261 	ld	de, #_aBackgroundTiles
   0A2A 19            [11] 2262 	add	hl, de
   0A2B 5D            [ 4] 2263 	ld	e,l
   0A2C 54            [ 4] 2264 	ld	d,h
   0A2D 21r93r01      [10] 2265 	ld	hl, #(_aPlayer + 0x0001) + 0
   0A30 6E            [ 7] 2266 	ld	l,(hl)
   0A31 7B            [ 4] 2267 	ld	a,e
   0A32 85            [ 4] 2268 	add	a, l
   0A33 5F            [ 4] 2269 	ld	e,a
   0A34 7A            [ 4] 2270 	ld	a,d
   0A35 CE 00         [ 7] 2271 	adc	a, #0x00
   0A37 57            [ 4] 2272 	ld	d,a
   0A38 1A            [ 7] 2273 	ld	a,(de)
   0A39 32r97r01      [13] 2274 	ld	(#(_aPlayer + 0x0005)),a
                           2275 ;ramon.c:466: aPlayer.nX--;
   0A3C 3Ar92r01      [13] 2276 	ld	a,(#_aPlayer + 0)
   0A3F C6 FF         [ 7] 2277 	add	a,#0xFF
   0A41 21r92r01      [10] 2278 	ld	hl,#_aPlayer
   0A44 77            [ 7] 2279 	ld	(hl),a
   0A45                    2280 00112$:
                           2281 ;ramon.c:471: if(aPlayer.nX % 2 == 0) {
   0A45 21r92r01      [10] 2282 	ld	hl, #_aPlayer + 0
   0A48 6E            [ 7] 2283 	ld	l,(hl)
   0A49 7D            [ 4] 2284 	ld	a,l
   0A4A E6 01         [ 7] 2285 	and	a, #0x01
   0A4C 47            [ 4] 2286 	ld	b,a
                           2287 ;ramon.c:472: aBackgroundTiles[aPlayer.nX][aPlayer.nY] = TileType_Player_f2;
   0A4D 5D            [ 4] 2288 	ld	e,l
   0A4E 16 00         [ 7] 2289 	ld	d,#0x00
   0A50 6B            [ 4] 2290 	ld	l, e
   0A51 62            [ 4] 2291 	ld	h, d
   0A52 29            [11] 2292 	add	hl, hl
   0A53 29            [11] 2293 	add	hl, hl
   0A54 19            [11] 2294 	add	hl, de
   0A55 29            [11] 2295 	add	hl, hl
   0A56 29            [11] 2296 	add	hl, hl
   0A57 EB            [ 4] 2297 	ex	de,hl
                           2298 ;ramon.c:471: if(aPlayer.nX % 2 == 0) {
   0A58 78            [ 4] 2299 	ld	a,b
   0A59 B7            [ 4] 2300 	or	a, a
   0A5A 20 1B         [12] 2301 	jr	NZ,00114$
                           2302 ;ramon.c:472: aBackgroundTiles[aPlayer.nX][aPlayer.nY] = TileType_Player_f2;
   0A5C 21r02r00      [10] 2303 	ld	hl,#_aBackgroundTiles
   0A5F 19            [11] 2304 	add	hl,de
   0A60 4D            [ 4] 2305 	ld	c,l
   0A61 44            [ 4] 2306 	ld	b,h
   0A62 21r93r01      [10] 2307 	ld	hl, #_aPlayer + 1
   0A65 6E            [ 7] 2308 	ld	l,(hl)
   0A66 79            [ 4] 2309 	ld	a,c
   0A67 85            [ 4] 2310 	add	a, l
   0A68 4F            [ 4] 2311 	ld	c,a
   0A69 78            [ 4] 2312 	ld	a,b
   0A6A CE 00         [ 7] 2313 	adc	a, #0x00
   0A6C 47            [ 4] 2314 	ld	b,a
   0A6D 3E 09         [ 7] 2315 	ld	a,#0x09
   0A6F 02            [ 7] 2316 	ld	(bc),a
                           2317 ;ramon.c:473: aPlayer.frame = 0;
   0A70 21r95r01      [10] 2318 	ld	hl,#(_aPlayer + 0x0003)
   0A73 36 00         [10] 2319 	ld	(hl),#0x00
   0A75 18 19         [12] 2320 	jr	00115$
   0A77                    2321 00114$:
                           2322 ;ramon.c:476: aBackgroundTiles[aPlayer.nX][aPlayer.nY] = TileType_Player_f1;
   0A77 21r02r00      [10] 2323 	ld	hl,#_aBackgroundTiles
   0A7A 19            [11] 2324 	add	hl,de
   0A7B 4D            [ 4] 2325 	ld	c,l
   0A7C 44            [ 4] 2326 	ld	b,h
   0A7D 21r93r01      [10] 2327 	ld	hl, #_aPlayer + 1
   0A80 6E            [ 7] 2328 	ld	l,(hl)
   0A81 79            [ 4] 2329 	ld	a,c
   0A82 85            [ 4] 2330 	add	a, l
   0A83 4F            [ 4] 2331 	ld	c,a
   0A84 78            [ 4] 2332 	ld	a,b
   0A85 CE 00         [ 7] 2333 	adc	a, #0x00
   0A87 47            [ 4] 2334 	ld	b,a
   0A88 3E 08         [ 7] 2335 	ld	a,#0x08
   0A8A 02            [ 7] 2336 	ld	(bc),a
                           2337 ;ramon.c:477: aPlayer.frame = 1;
   0A8B 21r95r01      [10] 2338 	ld	hl,#(_aPlayer + 0x0003)
   0A8E 36 01         [10] 2339 	ld	(hl),#0x01
   0A90                    2340 00115$:
                           2341 ;ramon.c:479: DrawTile(aPlayer.nX, aPlayer.nY);
   0A90 21r93r01      [10] 2342 	ld	hl, #_aPlayer + 1
   0A93 4E            [ 7] 2343 	ld	c,(hl)
   0A94 21r92r01      [10] 2344 	ld	hl, #_aPlayer + 0
   0A97 46            [ 7] 2345 	ld	b,(hl)
   0A98 79            [ 4] 2346 	ld	a,c
   0A99 F5            [11] 2347 	push	af
   0A9A 33            [ 6] 2348 	inc	sp
   0A9B C5            [11] 2349 	push	bc
   0A9C 33            [ 6] 2350 	inc	sp
   0A9D CDrD9r03      [17] 2351 	call	_DrawTile
   0AA0 F1            [10] 2352 	pop	af
   0AA1                    2353 00117$:
                           2354 ;ramon.c:484: if(nChar == 'L' || nChar == 'l' || nChar == 32)
   0AA1 DD 7E FF      [19] 2355 	ld	a,-1 (ix)
   0AA4 D6 4C         [ 7] 2356 	sub	a, #0x4C
   0AA6 28 0E         [12] 2357 	jr	Z,00120$
   0AA8 DD 7E FF      [19] 2358 	ld	a,-1 (ix)
   0AAB D6 6C         [ 7] 2359 	sub	a, #0x6C
   0AAD 28 07         [12] 2360 	jr	Z,00120$
   0AAF DD 7E FF      [19] 2361 	ld	a,-1 (ix)
   0AB2 D6 20         [ 7] 2362 	sub	a, #0x20
   0AB4 20 24         [12] 2363 	jr	NZ,00124$
   0AB6                    2364 00120$:
                           2365 ;ramon.c:487: if(aBolsa.activo == 0)
   0AB6 3Ar9Ar01      [13] 2366 	ld	a, (#(_aBolsa + 0x0002) + 0)
   0AB9 B7            [ 4] 2367 	or	a, a
   0ABA 20 1E         [12] 2368 	jr	NZ,00124$
                           2369 ;ramon.c:489: aBolsa.activo = 1;
   0ABC 21r9Ar01      [10] 2370 	ld	hl,#(_aBolsa + 0x0002)
   0ABF 36 01         [10] 2371 	ld	(hl),#0x01
                           2372 ;ramon.c:490: aBolsa.anterior = TileType_None;
   0AC1 21r9Br01      [10] 2373 	ld	hl,#(_aBolsa + 0x0003)
   0AC4 36 00         [10] 2374 	ld	(hl),#0x00
                           2375 ;ramon.c:491: aBolsa.nX = aPlayer.nX;
   0AC6 21r92r01      [10] 2376 	ld	hl, #_aPlayer + 0
   0AC9 4E            [ 7] 2377 	ld	c,(hl)
   0ACA 21r98r01      [10] 2378 	ld	hl,#_aBolsa
   0ACD 71            [ 7] 2379 	ld	(hl),c
                           2380 ;ramon.c:493: DrawTile(aBolsa.nX, aBolsa.nY);
   0ACE 3Ar99r01      [13] 2381 	ld	a,(#_aBolsa + 1)
   0AD1 F5            [11] 2382 	push	af
   0AD2 33            [ 6] 2383 	inc	sp
   0AD3 79            [ 4] 2384 	ld	a,c
   0AD4 F5            [11] 2385 	push	af
   0AD5 33            [ 6] 2386 	inc	sp
   0AD6 CDrD9r03      [17] 2387 	call	_DrawTile
   0AD9 F1            [10] 2388 	pop	af
   0ADA                    2389 00124$:
   0ADA 33            [ 6] 2390 	inc	sp
   0ADB DD E1         [14] 2391 	pop	ix
   0ADD C9            [10] 2392 	ret
   0ADE                    2393 _MovePlayer_end::
                           2394 ;ramon.c:499: unsigned char MoveBolsa(void)
                           2395 ;	---------------------------------
                           2396 ; Function MoveBolsa
                           2397 ; ---------------------------------
   0ADE                    2398 _MoveBolsa_start::
   0ADE                    2399 _MoveBolsa:
   0ADE DD E5         [15] 2400 	push	ix
   0AE0 DD 21 00 00   [14] 2401 	ld	ix,#0
   0AE4 DD 39         [15] 2402 	add	ix,sp
   0AE6 3B            [ 6] 2403 	dec	sp
                           2404 ;ramon.c:502: if(aBolsa.nY >2)	aBackgroundTiles[aBolsa.nX][aBolsa.nY] = aBolsa.anterior;
   0AE7 21r99r01      [10] 2405 	ld	hl, #(_aBolsa + 0x0001) + 0
   0AEA 4E            [ 7] 2406 	ld	c,(hl)
   0AEB 3E 02         [ 7] 2407 	ld	a,#0x02
   0AED 91            [ 4] 2408 	sub	a, c
   0AEE 30 1E         [12] 2409 	jr	NC,00102$
   0AF0 21r98r01      [10] 2410 	ld	hl, #_aBolsa + 0
   0AF3 5E            [ 7] 2411 	ld	e, (hl)
   0AF4 16 00         [ 7] 2412 	ld	d,#0x00
   0AF6 6B            [ 4] 2413 	ld	l, e
   0AF7 62            [ 4] 2414 	ld	h, d
   0AF8 29            [11] 2415 	add	hl, hl
   0AF9 29            [11] 2416 	add	hl, hl
   0AFA 19            [11] 2417 	add	hl, de
   0AFB 29            [11] 2418 	add	hl, hl
   0AFC 29            [11] 2419 	add	hl, hl
   0AFD 11r02r00      [10] 2420 	ld	de, #_aBackgroundTiles
   0B00 19            [11] 2421 	add	hl, de
   0B01 5D            [ 4] 2422 	ld	e,l
   0B02 54            [ 4] 2423 	ld	d,h
   0B03 7B            [ 4] 2424 	ld	a,e
   0B04 81            [ 4] 2425 	add	a, c
   0B05 4F            [ 4] 2426 	ld	c,a
   0B06 7A            [ 4] 2427 	ld	a,d
   0B07 CE 00         [ 7] 2428 	adc	a, #0x00
   0B09 47            [ 4] 2429 	ld	b,a
   0B0A 3Ar9Br01      [13] 2430 	ld	a, (#_aBolsa + 3)
   0B0D 02            [ 7] 2431 	ld	(bc),a
   0B0E                    2432 00102$:
                           2433 ;ramon.c:504: DrawTile(aBolsa.nX, aBolsa.nY);
   0B0E 21r99r01      [10] 2434 	ld	hl, #(_aBolsa + 0x0001) + 0
   0B11 4E            [ 7] 2435 	ld	c,(hl)
   0B12 21r98r01      [10] 2436 	ld	hl, #_aBolsa + 0
   0B15 46            [ 7] 2437 	ld	b,(hl)
   0B16 79            [ 4] 2438 	ld	a,c
   0B17 F5            [11] 2439 	push	af
   0B18 33            [ 6] 2440 	inc	sp
   0B19 C5            [11] 2441 	push	bc
   0B1A 33            [ 6] 2442 	inc	sp
   0B1B CDrD9r03      [17] 2443 	call	_DrawTile
   0B1E F1            [10] 2444 	pop	af
                           2445 ;ramon.c:506: if(aBolsa.nY < 19)
   0B1F 21r99r01      [10] 2446 	ld	hl, #(_aBolsa + 0x0001) + 0
   0B22 4E            [ 7] 2447 	ld	c,(hl)
                           2448 ;ramon.c:516: aBolsa.activo = 0;
                           2449 ;ramon.c:506: if(aBolsa.nY < 19)
   0B23 79            [ 4] 2450 	ld	a,c
   0B24 D6 13         [ 7] 2451 	sub	a, #0x13
   0B26 D2rDFr0B      [10] 2452 	jp	NC,00114$
                           2453 ;ramon.c:509: aBolsa.nY++;
   0B29 0C            [ 4] 2454 	inc	c
   0B2A 21r99r01      [10] 2455 	ld	hl,#(_aBolsa + 0x0001)
   0B2D 71            [ 7] 2456 	ld	(hl),c
                           2457 ;ramon.c:510: aBolsa.anterior = aBackgroundTiles[aBolsa.nX][aBolsa.nY];
   0B2E 21r98r01      [10] 2458 	ld	hl, #_aBolsa + 0
   0B31 5E            [ 7] 2459 	ld	e, (hl)
   0B32 16 00         [ 7] 2460 	ld	d,#0x00
   0B34 6B            [ 4] 2461 	ld	l, e
   0B35 62            [ 4] 2462 	ld	h, d
   0B36 29            [11] 2463 	add	hl, hl
   0B37 29            [11] 2464 	add	hl, hl
   0B38 19            [11] 2465 	add	hl, de
   0B39 29            [11] 2466 	add	hl, hl
   0B3A 29            [11] 2467 	add	hl, hl
   0B3B EB            [ 4] 2468 	ex	de,hl
   0B3C 21r02r00      [10] 2469 	ld	hl,#_aBackgroundTiles
   0B3F 19            [11] 2470 	add	hl,de
   0B40 EB            [ 4] 2471 	ex	de,hl
   0B41 7B            [ 4] 2472 	ld	a,e
   0B42 81            [ 4] 2473 	add	a, c
   0B43 5F            [ 4] 2474 	ld	e,a
   0B44 7A            [ 4] 2475 	ld	a,d
   0B45 CE 00         [ 7] 2476 	adc	a, #0x00
   0B47 57            [ 4] 2477 	ld	d,a
   0B48 1A            [ 7] 2478 	ld	a,(de)
   0B49 21r9Br01      [10] 2479 	ld	hl,#(_aBolsa + 0x0003)
   0B4C 77            [ 7] 2480 	ld	(hl),a
                           2481 ;ramon.c:513: if(aBackgroundTiles[aBolsa.nX][aBolsa.nY] == TileType_Poli_f1 ||
   0B4D 21r98r01      [10] 2482 	ld	hl, #_aBolsa + 0
   0B50 5E            [ 7] 2483 	ld	e, (hl)
   0B51 16 00         [ 7] 2484 	ld	d,#0x00
   0B53 6B            [ 4] 2485 	ld	l, e
   0B54 62            [ 4] 2486 	ld	h, d
   0B55 29            [11] 2487 	add	hl, hl
   0B56 29            [11] 2488 	add	hl, hl
   0B57 19            [11] 2489 	add	hl, de
   0B58 29            [11] 2490 	add	hl, hl
   0B59 29            [11] 2491 	add	hl, hl
   0B5A EB            [ 4] 2492 	ex	de,hl
   0B5B 21r02r00      [10] 2493 	ld	hl,#_aBackgroundTiles
   0B5E 19            [11] 2494 	add	hl,de
   0B5F EB            [ 4] 2495 	ex	de,hl
   0B60 3Ar99r01      [13] 2496 	ld	a,(#(_aBolsa + 0x0001) + 0)
   0B63 DD 77 FF      [19] 2497 	ld	-1 (ix),a
   0B66 7B            [ 4] 2498 	ld	a,e
   0B67 81            [ 4] 2499 	add	a, c
   0B68 4F            [ 4] 2500 	ld	c,a
   0B69 7A            [ 4] 2501 	ld	a,d
   0B6A CE 00         [ 7] 2502 	adc	a, #0x00
   0B6C 47            [ 4] 2503 	ld	b,a
   0B6D 0A            [ 7] 2504 	ld	a,(bc)
   0B6E 6F            [ 4] 2505 	ld	l,a
   0B6F D6 0A         [ 7] 2506 	sub	a, #0x0A
   0B71 28 0F         [12] 2507 	jr	Z,00103$
                           2508 ;ramon.c:514: aBackgroundTiles[aBolsa.nX][aBolsa.nY] == TileType_Poli_f2)
   0B73 7B            [ 4] 2509 	ld	a,e
   0B74 DD 86 FF      [19] 2510 	add	a, -1 (ix)
   0B77 4F            [ 4] 2511 	ld	c,a
   0B78 7A            [ 4] 2512 	ld	a,d
   0B79 CE 00         [ 7] 2513 	adc	a, #0x00
   0B7B 47            [ 4] 2514 	ld	b,a
   0B7C 0A            [ 7] 2515 	ld	a,(bc)
   0B7D 4F            [ 4] 2516 	ld	c,a
   0B7E D6 0B         [ 7] 2517 	sub	a, #0x0B
   0B80 20 0A         [12] 2518 	jr	NZ,00104$
   0B82                    2519 00103$:
                           2520 ;ramon.c:516: aBolsa.activo = 0;
   0B82 21r9Ar01      [10] 2521 	ld	hl,#(_aBolsa + 0x0002)
   0B85 36 00         [10] 2522 	ld	(hl),#0x00
                           2523 ;ramon.c:517: return 0;
   0B87 2E 00         [ 7] 2524 	ld	l,#0x00
   0B89 C3r09r0C      [10] 2525 	jp	00118$
   0B8C                    2526 00104$:
                           2527 ;ramon.c:521: if(aBackgroundTiles[aBolsa.nX][aBolsa.nY] == TileType_Camion1 ||
   0B8C 0D            [ 4] 2528 	dec	c
   0B8D 28 15         [12] 2529 	jr	Z,00106$
                           2530 ;ramon.c:522: aBackgroundTiles[aBolsa.nX][aBolsa.nY] == TileType_Camion2 ||
                           2531 ;ramon.c:523: aBackgroundTiles[aBolsa.nX][aBolsa.nY] == TileType_Camion3 ||
   0B8F 79            [ 4] 2532 	ld	a,c
   0B90 FE 02         [ 7] 2533 	cp	a,#0x02
   0B92 28 10         [12] 2534 	jr	Z,00106$
                           2535 ;ramon.c:524: aBackgroundTiles[aBolsa.nX][aBolsa.nY] == TileType_Camion4 ||
                           2536 ;ramon.c:525: aBackgroundTiles[aBolsa.nX][aBolsa.nY] == TileType_Camion5 ||
   0B94 FE 03         [ 7] 2537 	cp	a,#0x03
   0B96 28 0C         [12] 2538 	jr	Z,00106$
   0B98 FE 04         [ 7] 2539 	cp	a,#0x04
   0B9A 28 08         [12] 2540 	jr	Z,00106$
                           2541 ;ramon.c:526: aBackgroundTiles[aBolsa.nX][aBolsa.nY] == TileType_Camion6 )
   0B9C FE 05         [ 7] 2542 	cp	a,#0x05
   0B9E 28 04         [12] 2543 	jr	Z,00106$
   0BA0 D6 06         [ 7] 2544 	sub	a, #0x06
   0BA2 20 18         [12] 2545 	jr	NZ,00107$
   0BA4                    2546 00106$:
                           2547 ;ramon.c:528: aPlayer.puntos++;
   0BA4 3Ar94r01      [13] 2548 	ld	a,(#(_aPlayer + 0x0002) + 0)
   0BA7 3C            [ 4] 2549 	inc	a
   0BA8 21r94r01      [10] 2550 	ld	hl,#(_aPlayer + 0x0002)
   0BAB 77            [ 7] 2551 	ld	(hl),a
                           2552 ;ramon.c:529: aBolsa.nX = aPlayer.nX;
   0BAC 3Ar92r01      [13] 2553 	ld	a, (#_aPlayer + 0)
   0BAF 32r98r01      [13] 2554 	ld	(#_aBolsa),a
                           2555 ;ramon.c:530: aBolsa.nY = 2;
   0BB2 21r99r01      [10] 2556 	ld	hl,#(_aBolsa + 0x0001)
   0BB5 36 02         [10] 2557 	ld	(hl),#0x02
                           2558 ;ramon.c:531: aBolsa.activo = 0;
   0BB7 21r9Ar01      [10] 2559 	ld	hl,#(_aBolsa + 0x0002)
   0BBA 36 00         [10] 2560 	ld	(hl),#0x00
   0BBC                    2561 00107$:
                           2562 ;ramon.c:534: aBackgroundTiles[aBolsa.nX][aBolsa.nY] = TileType_Bolsa;
   0BBC 21r98r01      [10] 2563 	ld	hl, #_aBolsa + 0
   0BBF 4E            [ 7] 2564 	ld	c, (hl)
   0BC0 06 00         [ 7] 2565 	ld	b,#0x00
   0BC2 69            [ 4] 2566 	ld	l, c
   0BC3 60            [ 4] 2567 	ld	h, b
   0BC4 29            [11] 2568 	add	hl, hl
   0BC5 29            [11] 2569 	add	hl, hl
   0BC6 09            [11] 2570 	add	hl, bc
   0BC7 29            [11] 2571 	add	hl, hl
   0BC8 29            [11] 2572 	add	hl, hl
   0BC9 01r02r00      [10] 2573 	ld	bc,#_aBackgroundTiles
   0BCC 09            [11] 2574 	add	hl,bc
   0BCD 4D            [ 4] 2575 	ld	c,l
   0BCE 44            [ 4] 2576 	ld	b,h
   0BCF 21r99r01      [10] 2577 	ld	hl, #(_aBolsa + 0x0001) + 0
   0BD2 6E            [ 7] 2578 	ld	l,(hl)
   0BD3 79            [ 4] 2579 	ld	a,c
   0BD4 85            [ 4] 2580 	add	a, l
   0BD5 4F            [ 4] 2581 	ld	c,a
   0BD6 78            [ 4] 2582 	ld	a,b
   0BD7 CE 00         [ 7] 2583 	adc	a, #0x00
   0BD9 47            [ 4] 2584 	ld	b,a
   0BDA 3E 0C         [ 7] 2585 	ld	a,#0x0C
   0BDC 02            [ 7] 2586 	ld	(bc),a
   0BDD 18 10         [12] 2587 	jr	00115$
   0BDF                    2588 00114$:
                           2589 ;ramon.c:538: aBolsa.nX = aPlayer.nX;
   0BDF 3Ar92r01      [13] 2590 	ld	a, (#_aPlayer + 0)
   0BE2 32r98r01      [13] 2591 	ld	(#_aBolsa),a
                           2592 ;ramon.c:539: aBolsa.nY = 2;
   0BE5 21r99r01      [10] 2593 	ld	hl,#(_aBolsa + 0x0001)
   0BE8 36 02         [10] 2594 	ld	(hl),#0x02
                           2595 ;ramon.c:540: aBolsa.activo = 0;
   0BEA 21r9Ar01      [10] 2596 	ld	hl,#(_aBolsa + 0x0002)
   0BED 36 00         [10] 2597 	ld	(hl),#0x00
   0BEF                    2598 00115$:
                           2599 ;ramon.c:543: if(aBolsa.activo == 1)
   0BEF 21r9Ar01      [10] 2600 	ld	hl, #_aBolsa + 2
   0BF2 6E            [ 7] 2601 	ld	l,(hl)
   0BF3 2D            [ 4] 2602 	dec	l
   0BF4 20 11         [12] 2603 	jr	NZ,00117$
                           2604 ;ramon.c:544: DrawTile(aBolsa.nX, aBolsa.nY);
   0BF6 21r99r01      [10] 2605 	ld	hl, #(_aBolsa + 0x0001) + 0
   0BF9 4E            [ 7] 2606 	ld	c,(hl)
   0BFA 21r98r01      [10] 2607 	ld	hl, #_aBolsa + 0
   0BFD 46            [ 7] 2608 	ld	b,(hl)
   0BFE 79            [ 4] 2609 	ld	a,c
   0BFF F5            [11] 2610 	push	af
   0C00 33            [ 6] 2611 	inc	sp
   0C01 C5            [11] 2612 	push	bc
   0C02 33            [ 6] 2613 	inc	sp
   0C03 CDrD9r03      [17] 2614 	call	_DrawTile
   0C06 F1            [10] 2615 	pop	af
   0C07                    2616 00117$:
                           2617 ;ramon.c:546: return 1;
   0C07 2E 01         [ 7] 2618 	ld	l,#0x01
   0C09                    2619 00118$:
   0C09 33            [ 6] 2620 	inc	sp
   0C0A DD E1         [14] 2621 	pop	ix
   0C0C C9            [10] 2622 	ret
   0C0D                    2623 _MoveBolsa_end::
                           2624 ;ramon.c:550: void MovePolicias(void)
                           2625 ;	---------------------------------
                           2626 ; Function MovePolicias
                           2627 ; ---------------------------------
   0C0D                    2628 _MovePolicias_start::
   0C0D                    2629 _MovePolicias:
                           2630 ;ramon.c:553: if(aPoli1.timer % 2 == 0)
   0C0D 3Ar9Er01      [13] 2631 	ld	a, (#(_aPoli1 + 0x0002) + 0)
   0C10 0F            [ 4] 2632 	rrca
   0C11 DArB3r0C      [10] 2633 	jp	C,00110$
                           2634 ;ramon.c:555: aBackgroundTiles[aPoli1.nX][aPoli1.nY] = TileType_None;
   0C14 21r9Cr01      [10] 2635 	ld	hl, #_aPoli1 + 0
   0C17 4E            [ 7] 2636 	ld	c, (hl)
   0C18 06 00         [ 7] 2637 	ld	b,#0x00
   0C1A 69            [ 4] 2638 	ld	l, c
   0C1B 60            [ 4] 2639 	ld	h, b
   0C1C 29            [11] 2640 	add	hl, hl
   0C1D 29            [11] 2641 	add	hl, hl
   0C1E 09            [11] 2642 	add	hl, bc
   0C1F 29            [11] 2643 	add	hl, hl
   0C20 29            [11] 2644 	add	hl, hl
   0C21 01r02r00      [10] 2645 	ld	bc,#_aBackgroundTiles
   0C24 09            [11] 2646 	add	hl,bc
   0C25 4D            [ 4] 2647 	ld	c,l
   0C26 44            [ 4] 2648 	ld	b,h
   0C27 21r9Dr01      [10] 2649 	ld	hl, #(_aPoli1 + 0x0001) + 0
   0C2A 6E            [ 7] 2650 	ld	l,(hl)
   0C2B 79            [ 4] 2651 	ld	a,c
   0C2C 85            [ 4] 2652 	add	a, l
   0C2D 4F            [ 4] 2653 	ld	c,a
   0C2E 78            [ 4] 2654 	ld	a,b
   0C2F CE 00         [ 7] 2655 	adc	a, #0x00
   0C31 47            [ 4] 2656 	ld	b,a
   0C32 AF            [ 4] 2657 	xor	a, a
   0C33 02            [ 7] 2658 	ld	(bc),a
                           2659 ;ramon.c:557: DrawTile(aPoli1.nX, aPoli1.nY);
   0C34 21r9Dr01      [10] 2660 	ld	hl, #(_aPoli1 + 0x0001) + 0
   0C37 4E            [ 7] 2661 	ld	c,(hl)
   0C38 21r9Cr01      [10] 2662 	ld	hl, #_aPoli1 + 0
   0C3B 46            [ 7] 2663 	ld	b,(hl)
   0C3C 79            [ 4] 2664 	ld	a,c
   0C3D F5            [11] 2665 	push	af
   0C3E 33            [ 6] 2666 	inc	sp
   0C3F C5            [11] 2667 	push	bc
   0C40 33            [ 6] 2668 	inc	sp
   0C41 CDrD9r03      [17] 2669 	call	_DrawTile
   0C44 F1            [10] 2670 	pop	af
                           2671 ;ramon.c:559: if(aPlayer.nX > aPoli1.nX)
   0C45 21r92r01      [10] 2672 	ld	hl, #_aPlayer + 0
   0C48 4E            [ 7] 2673 	ld	c,(hl)
   0C49 21r9Cr01      [10] 2674 	ld	hl, #_aPoli1 + 0
   0C4C 46            [ 7] 2675 	ld	b,(hl)
                           2676 ;ramon.c:561: aPoli1.nX++;
   0C4D 78            [ 4] 2677 	ld	a,b
   0C4E B9            [ 4] 2678 	cp	a,c
   0C4F 30 07         [12] 2679 	jr	NC,00104$
   0C51 3C            [ 4] 2680 	inc	a
   0C52 21r9Cr01      [10] 2681 	ld	hl,#_aPoli1
   0C55 77            [ 7] 2682 	ld	(hl),a
   0C56 18 0B         [12] 2683 	jr	00105$
   0C58                    2684 00104$:
                           2685 ;ramon.c:563: } else if(aPlayer.nX < aPoli1.nX)
   0C58 79            [ 4] 2686 	ld	a,c
   0C59 90            [ 4] 2687 	sub	a, b
   0C5A 30 07         [12] 2688 	jr	NC,00105$
                           2689 ;ramon.c:565: aPoli1.nX--;
   0C5C 78            [ 4] 2690 	ld	a,b
   0C5D C6 FF         [ 7] 2691 	add	a,#0xFF
   0C5F 21r9Cr01      [10] 2692 	ld	hl,#_aPoli1
   0C62 77            [ 7] 2693 	ld	(hl),a
   0C63                    2694 00105$:
                           2695 ;ramon.c:569: if(aPoli1.frame == 0) {
   0C63 21r9Fr01      [10] 2696 	ld	hl, #(_aPoli1 + 0x0003) + 0
   0C66 4E            [ 7] 2697 	ld	c,(hl)
                           2698 ;ramon.c:555: aBackgroundTiles[aPoli1.nX][aPoli1.nY] = TileType_None;
   0C67 21r9Cr01      [10] 2699 	ld	hl, #_aPoli1 + 0
   0C6A 46            [ 7] 2700 	ld	b,(hl)
   0C6B 21r9Dr01      [10] 2701 	ld	hl, #(_aPoli1 + 0x0001) + 0
   0C6E 5E            [ 7] 2702 	ld	e,(hl)
                           2703 ;ramon.c:570: aBackgroundTiles[aPoli1.nX][aPoli1.nY] = TileType_Poli_f1;
   0C6F D5            [11] 2704 	push	de
   0C70 58            [ 4] 2705 	ld	e,b
   0C71 16 00         [ 7] 2706 	ld	d,#0x00
   0C73 6B            [ 4] 2707 	ld	l, e
   0C74 62            [ 4] 2708 	ld	h, d
   0C75 29            [11] 2709 	add	hl, hl
   0C76 29            [11] 2710 	add	hl, hl
   0C77 19            [11] 2711 	add	hl, de
   0C78 29            [11] 2712 	add	hl, hl
   0C79 29            [11] 2713 	add	hl, hl
   0C7A D1            [10] 2714 	pop	de
   0C7B 45            [ 4] 2715 	ld	b,l
   0C7C 54            [ 4] 2716 	ld	d,h
   0C7D 3Er02         [ 7] 2717 	ld	a,#<(_aBackgroundTiles)
   0C7F 80            [ 4] 2718 	add	a, b
   0C80 47            [ 4] 2719 	ld	b,a
   0C81 3Es00         [ 7] 2720 	ld	a,#>(_aBackgroundTiles)
   0C83 8A            [ 4] 2721 	adc	a, d
   0C84 57            [ 4] 2722 	ld	d,a
   0C85 78            [ 4] 2723 	ld	a,b
   0C86 83            [ 4] 2724 	add	a, e
   0C87 5F            [ 4] 2725 	ld	e,a
   0C88 7A            [ 4] 2726 	ld	a,d
   0C89 CE 00         [ 7] 2727 	adc	a, #0x00
   0C8B 57            [ 4] 2728 	ld	d,a
                           2729 ;ramon.c:569: if(aPoli1.frame == 0) {
   0C8C 79            [ 4] 2730 	ld	a,c
   0C8D B7            [ 4] 2731 	or	a, a
   0C8E 20 0A         [12] 2732 	jr	NZ,00107$
                           2733 ;ramon.c:570: aBackgroundTiles[aPoli1.nX][aPoli1.nY] = TileType_Poli_f1;
   0C90 3E 0A         [ 7] 2734 	ld	a,#0x0A
   0C92 12            [ 7] 2735 	ld	(de),a
                           2736 ;ramon.c:571: aPoli1.frame = 1;
   0C93 21r9Fr01      [10] 2737 	ld	hl,#(_aPoli1 + 0x0003)
   0C96 36 01         [10] 2738 	ld	(hl),#0x01
   0C98 18 08         [12] 2739 	jr	00108$
   0C9A                    2740 00107$:
                           2741 ;ramon.c:574: aBackgroundTiles[aPoli1.nX][aPoli1.nY] = TileType_Poli_f2;
   0C9A 3E 0B         [ 7] 2742 	ld	a,#0x0B
   0C9C 12            [ 7] 2743 	ld	(de),a
                           2744 ;ramon.c:575: aPoli1.frame = 0;
   0C9D 21r9Fr01      [10] 2745 	ld	hl,#(_aPoli1 + 0x0003)
   0CA0 36 00         [10] 2746 	ld	(hl),#0x00
   0CA2                    2747 00108$:
                           2748 ;ramon.c:579: DrawTile(aPoli1.nX, aPoli1.nY);
   0CA2 21r9Dr01      [10] 2749 	ld	hl, #(_aPoli1 + 0x0001) + 0
   0CA5 4E            [ 7] 2750 	ld	c,(hl)
   0CA6 21r9Cr01      [10] 2751 	ld	hl, #_aPoli1 + 0
   0CA9 46            [ 7] 2752 	ld	b,(hl)
   0CAA 79            [ 4] 2753 	ld	a,c
   0CAB F5            [11] 2754 	push	af
   0CAC 33            [ 6] 2755 	inc	sp
   0CAD C5            [11] 2756 	push	bc
   0CAE 33            [ 6] 2757 	inc	sp
   0CAF CDrD9r03      [17] 2758 	call	_DrawTile
   0CB2 F1            [10] 2759 	pop	af
   0CB3                    2760 00110$:
                           2761 ;ramon.c:581: aPoli1.timer++;
   0CB3 3Ar9Er01      [13] 2762 	ld	a,(#(_aPoli1 + 0x0002) + 0)
   0CB6 3C            [ 4] 2763 	inc	a
   0CB7 21r9Er01      [10] 2764 	ld	hl,#(_aPoli1 + 0x0002)
   0CBA 77            [ 7] 2765 	ld	(hl),a
                           2766 ;ramon.c:584: if(aPoli2.timer % 2 == 0 && aBolsa.activo)
   0CBB 3ArA2r01      [13] 2767 	ld	a, (#(_aPoli2 + 0x0002) + 0)
   0CBE 0F            [ 4] 2768 	rrca
   0CBF DAr68r0D      [10] 2769 	jp	C,00120$
   0CC2 3Ar9Ar01      [13] 2770 	ld	a, (#_aBolsa + 2)
   0CC5 B7            [ 4] 2771 	or	a, a
   0CC6 CAr68r0D      [10] 2772 	jp	Z,00120$
                           2773 ;ramon.c:586: aBackgroundTiles[aPoli2.nX][aPoli2.nY] = TileType_None;
   0CC9 21rA0r01      [10] 2774 	ld	hl, #_aPoli2 + 0
   0CCC 4E            [ 7] 2775 	ld	c, (hl)
   0CCD 06 00         [ 7] 2776 	ld	b,#0x00
   0CCF 69            [ 4] 2777 	ld	l, c
   0CD0 60            [ 4] 2778 	ld	h, b
   0CD1 29            [11] 2779 	add	hl, hl
   0CD2 29            [11] 2780 	add	hl, hl
   0CD3 09            [11] 2781 	add	hl, bc
   0CD4 29            [11] 2782 	add	hl, hl
   0CD5 29            [11] 2783 	add	hl, hl
   0CD6 01r02r00      [10] 2784 	ld	bc,#_aBackgroundTiles
   0CD9 09            [11] 2785 	add	hl,bc
   0CDA 4D            [ 4] 2786 	ld	c,l
   0CDB 44            [ 4] 2787 	ld	b,h
   0CDC 21rA1r01      [10] 2788 	ld	hl, #(_aPoli2 + 0x0001) + 0
   0CDF 6E            [ 7] 2789 	ld	l,(hl)
   0CE0 79            [ 4] 2790 	ld	a,c
   0CE1 85            [ 4] 2791 	add	a, l
   0CE2 4F            [ 4] 2792 	ld	c,a
   0CE3 78            [ 4] 2793 	ld	a,b
   0CE4 CE 00         [ 7] 2794 	adc	a, #0x00
   0CE6 47            [ 4] 2795 	ld	b,a
   0CE7 AF            [ 4] 2796 	xor	a, a
   0CE8 02            [ 7] 2797 	ld	(bc),a
                           2798 ;ramon.c:588: DrawTile(aPoli2.nX, aPoli2.nY);
   0CE9 21rA1r01      [10] 2799 	ld	hl, #(_aPoli2 + 0x0001) + 0
   0CEC 4E            [ 7] 2800 	ld	c,(hl)
   0CED 21rA0r01      [10] 2801 	ld	hl, #_aPoli2 + 0
   0CF0 46            [ 7] 2802 	ld	b,(hl)
   0CF1 79            [ 4] 2803 	ld	a,c
   0CF2 F5            [11] 2804 	push	af
   0CF3 33            [ 6] 2805 	inc	sp
   0CF4 C5            [11] 2806 	push	bc
   0CF5 33            [ 6] 2807 	inc	sp
   0CF6 CDrD9r03      [17] 2808 	call	_DrawTile
   0CF9 F1            [10] 2809 	pop	af
                           2810 ;ramon.c:590: if(aBolsa.nX > aPoli2.nX)
   0CFA 21r98r01      [10] 2811 	ld	hl, #_aBolsa + 0
   0CFD 4E            [ 7] 2812 	ld	c,(hl)
   0CFE 21rA0r01      [10] 2813 	ld	hl, #_aPoli2 + 0
   0D01 46            [ 7] 2814 	ld	b,(hl)
                           2815 ;ramon.c:592: aPoli2.nX++;
   0D02 78            [ 4] 2816 	ld	a,b
   0D03 B9            [ 4] 2817 	cp	a,c
   0D04 30 07         [12] 2818 	jr	NC,00114$
   0D06 3C            [ 4] 2819 	inc	a
   0D07 21rA0r01      [10] 2820 	ld	hl,#_aPoli2
   0D0A 77            [ 7] 2821 	ld	(hl),a
   0D0B 18 0B         [12] 2822 	jr	00115$
   0D0D                    2823 00114$:
                           2824 ;ramon.c:594: } else if(aBolsa.nX < aPoli2.nX)
   0D0D 79            [ 4] 2825 	ld	a,c
   0D0E 90            [ 4] 2826 	sub	a, b
   0D0F 30 07         [12] 2827 	jr	NC,00115$
                           2828 ;ramon.c:596: aPoli2.nX--;
   0D11 78            [ 4] 2829 	ld	a,b
   0D12 C6 FF         [ 7] 2830 	add	a,#0xFF
   0D14 21rA0r01      [10] 2831 	ld	hl,#_aPoli2
   0D17 77            [ 7] 2832 	ld	(hl),a
   0D18                    2833 00115$:
                           2834 ;ramon.c:600: if(aPoli2.frame == 0) {
   0D18 21rA3r01      [10] 2835 	ld	hl, #(_aPoli2 + 0x0003) + 0
   0D1B 4E            [ 7] 2836 	ld	c,(hl)
                           2837 ;ramon.c:586: aBackgroundTiles[aPoli2.nX][aPoli2.nY] = TileType_None;
   0D1C 21rA0r01      [10] 2838 	ld	hl, #_aPoli2 + 0
   0D1F 46            [ 7] 2839 	ld	b,(hl)
   0D20 21rA1r01      [10] 2840 	ld	hl, #(_aPoli2 + 0x0001) + 0
   0D23 5E            [ 7] 2841 	ld	e,(hl)
                           2842 ;ramon.c:601: aBackgroundTiles[aPoli2.nX][aPoli2.nY] = TileType_Poli_f1;
   0D24 D5            [11] 2843 	push	de
   0D25 58            [ 4] 2844 	ld	e,b
   0D26 16 00         [ 7] 2845 	ld	d,#0x00
   0D28 6B            [ 4] 2846 	ld	l, e
   0D29 62            [ 4] 2847 	ld	h, d
   0D2A 29            [11] 2848 	add	hl, hl
   0D2B 29            [11] 2849 	add	hl, hl
   0D2C 19            [11] 2850 	add	hl, de
   0D2D 29            [11] 2851 	add	hl, hl
   0D2E 29            [11] 2852 	add	hl, hl
   0D2F D1            [10] 2853 	pop	de
   0D30 45            [ 4] 2854 	ld	b,l
   0D31 54            [ 4] 2855 	ld	d,h
   0D32 3Er02         [ 7] 2856 	ld	a,#<(_aBackgroundTiles)
   0D34 80            [ 4] 2857 	add	a, b
   0D35 47            [ 4] 2858 	ld	b,a
   0D36 3Es00         [ 7] 2859 	ld	a,#>(_aBackgroundTiles)
   0D38 8A            [ 4] 2860 	adc	a, d
   0D39 57            [ 4] 2861 	ld	d,a
   0D3A 78            [ 4] 2862 	ld	a,b
   0D3B 83            [ 4] 2863 	add	a, e
   0D3C 5F            [ 4] 2864 	ld	e,a
   0D3D 7A            [ 4] 2865 	ld	a,d
   0D3E CE 00         [ 7] 2866 	adc	a, #0x00
   0D40 57            [ 4] 2867 	ld	d,a
                           2868 ;ramon.c:600: if(aPoli2.frame == 0) {
   0D41 79            [ 4] 2869 	ld	a,c
   0D42 B7            [ 4] 2870 	or	a, a
   0D43 20 0A         [12] 2871 	jr	NZ,00117$
                           2872 ;ramon.c:601: aBackgroundTiles[aPoli2.nX][aPoli2.nY] = TileType_Poli_f1;
   0D45 3E 0A         [ 7] 2873 	ld	a,#0x0A
   0D47 12            [ 7] 2874 	ld	(de),a
                           2875 ;ramon.c:602: aPoli2.frame = 1;
   0D48 21rA3r01      [10] 2876 	ld	hl,#(_aPoli2 + 0x0003)
   0D4B 36 01         [10] 2877 	ld	(hl),#0x01
   0D4D 18 08         [12] 2878 	jr	00118$
   0D4F                    2879 00117$:
                           2880 ;ramon.c:605: aBackgroundTiles[aPoli2.nX][aPoli2.nY] = TileType_Poli_f2;
   0D4F 3E 0B         [ 7] 2881 	ld	a,#0x0B
   0D51 12            [ 7] 2882 	ld	(de),a
                           2883 ;ramon.c:606: aPoli2.frame = 0;
   0D52 21rA3r01      [10] 2884 	ld	hl,#(_aPoli2 + 0x0003)
   0D55 36 00         [10] 2885 	ld	(hl),#0x00
   0D57                    2886 00118$:
                           2887 ;ramon.c:608: DrawTile(aPoli2.nX, aPoli2.nY);
   0D57 21rA1r01      [10] 2888 	ld	hl, #(_aPoli2 + 0x0001) + 0
   0D5A 4E            [ 7] 2889 	ld	c,(hl)
   0D5B 21rA0r01      [10] 2890 	ld	hl, #_aPoli2 + 0
   0D5E 46            [ 7] 2891 	ld	b,(hl)
   0D5F 79            [ 4] 2892 	ld	a,c
   0D60 F5            [11] 2893 	push	af
   0D61 33            [ 6] 2894 	inc	sp
   0D62 C5            [11] 2895 	push	bc
   0D63 33            [ 6] 2896 	inc	sp
   0D64 CDrD9r03      [17] 2897 	call	_DrawTile
   0D67 F1            [10] 2898 	pop	af
   0D68                    2899 00120$:
                           2900 ;ramon.c:611: aPoli2.timer++;
   0D68 3ArA2r01      [13] 2901 	ld	a,(#(_aPoli2 + 0x0002) + 0)
   0D6B 3C            [ 4] 2902 	inc	a
   0D6C 21rA2r01      [10] 2903 	ld	hl,#(_aPoli2 + 0x0002)
   0D6F 77            [ 7] 2904 	ld	(hl),a
                           2905 ;ramon.c:614: if(aPoli3.timer % 2 == 0)
   0D70 3ArA6r01      [13] 2906 	ld	a, (#(_aPoli3 + 0x0002) + 0)
   0D73 0F            [ 4] 2907 	rrca
   0D74 DAr3Er0E      [10] 2908 	jp	C,00133$
                           2909 ;ramon.c:616: aBackgroundTiles[aPoli3.nX][aPoli3.nY] = TileType_None;
   0D77 21rA4r01      [10] 2910 	ld	hl, #_aPoli3 + 0
   0D7A 4E            [ 7] 2911 	ld	c, (hl)
   0D7B 06 00         [ 7] 2912 	ld	b,#0x00
   0D7D 69            [ 4] 2913 	ld	l, c
   0D7E 60            [ 4] 2914 	ld	h, b
   0D7F 29            [11] 2915 	add	hl, hl
   0D80 29            [11] 2916 	add	hl, hl
   0D81 09            [11] 2917 	add	hl, bc
   0D82 29            [11] 2918 	add	hl, hl
   0D83 29            [11] 2919 	add	hl, hl
   0D84 01r02r00      [10] 2920 	ld	bc,#_aBackgroundTiles
   0D87 09            [11] 2921 	add	hl,bc
   0D88 4D            [ 4] 2922 	ld	c,l
   0D89 44            [ 4] 2923 	ld	b,h
   0D8A 21rA5r01      [10] 2924 	ld	hl, #(_aPoli3 + 0x0001) + 0
   0D8D 6E            [ 7] 2925 	ld	l,(hl)
   0D8E 79            [ 4] 2926 	ld	a,c
   0D8F 85            [ 4] 2927 	add	a, l
   0D90 4F            [ 4] 2928 	ld	c,a
   0D91 78            [ 4] 2929 	ld	a,b
   0D92 CE 00         [ 7] 2930 	adc	a, #0x00
   0D94 47            [ 4] 2931 	ld	b,a
   0D95 AF            [ 4] 2932 	xor	a, a
   0D96 02            [ 7] 2933 	ld	(bc),a
                           2934 ;ramon.c:617: DrawTile(aPoli3.nX, aPoli3.nY);
   0D97 21rA5r01      [10] 2935 	ld	hl, #(_aPoli3 + 0x0001) + 0
   0D9A 4E            [ 7] 2936 	ld	c,(hl)
   0D9B 21rA4r01      [10] 2937 	ld	hl, #_aPoli3 + 0
   0D9E 46            [ 7] 2938 	ld	b,(hl)
   0D9F 79            [ 4] 2939 	ld	a,c
   0DA0 F5            [11] 2940 	push	af
   0DA1 33            [ 6] 2941 	inc	sp
   0DA2 C5            [11] 2942 	push	bc
   0DA3 33            [ 6] 2943 	inc	sp
   0DA4 CDrD9r03      [17] 2944 	call	_DrawTile
   0DA7 F1            [10] 2945 	pop	af
                           2946 ;ramon.c:618: if(aPoli3.timer/2 % 10 < 6)
   0DA8 3ArA6r01      [13] 2947 	ld	a, (#(_aPoli3 + 0x0002) + 0)
   0DAB CB 3F         [ 8] 2948 	srl	a
   0DAD 4F            [ 4] 2949 	ld	c,a
   0DAE 3E 0A         [ 7] 2950 	ld	a,#0x0A
   0DB0 F5            [11] 2951 	push	af
   0DB1 33            [ 6] 2952 	inc	sp
   0DB2 79            [ 4] 2953 	ld	a,c
   0DB3 F5            [11] 2954 	push	af
   0DB4 33            [ 6] 2955 	inc	sp
                           2956 ;ramon.c:616: aBackgroundTiles[aPoli3.nX][aPoli3.nY] = TileType_None;
   0DB5 CDr00r00      [17] 2957 	call	__moduchar_rrx_s
   0DB8 F1            [10] 2958 	pop	af
   0DB9 4D            [ 4] 2959 	ld	c,l
   0DBA 21rA4r01      [10] 2960 	ld	hl, #_aPoli3 + 0
   0DBD 46            [ 7] 2961 	ld	b,(hl)
                           2962 ;ramon.c:618: if(aPoli3.timer/2 % 10 < 6)
   0DBE 79            [ 4] 2963 	ld	a,c
   0DBF D6 06         [ 7] 2964 	sub	a, #0x06
   0DC1 30 09         [12] 2965 	jr	NC,00123$
                           2966 ;ramon.c:620: aPoli3.nX--;
   0DC3 78            [ 4] 2967 	ld	a,b
   0DC4 C6 FF         [ 7] 2968 	add	a,#0xFF
   0DC6 21rA4r01      [10] 2969 	ld	hl,#_aPoli3
   0DC9 77            [ 7] 2970 	ld	(hl),a
   0DCA 18 06         [12] 2971 	jr	00124$
   0DCC                    2972 00123$:
                           2973 ;ramon.c:622: aPoli3.nX++;
   0DCC 78            [ 4] 2974 	ld	a,b
   0DCD 3C            [ 4] 2975 	inc	a
   0DCE 21rA4r01      [10] 2976 	ld	hl,#_aPoli3
   0DD1 77            [ 7] 2977 	ld	(hl),a
   0DD2                    2978 00124$:
                           2979 ;ramon.c:625: if(aPoli3.nX < 1)
   0DD2 21rA4r01      [10] 2980 	ld	hl, #_aPoli3 + 0
   0DD5 6E            [ 7] 2981 	ld	l,(hl)
   0DD6 7D            [ 4] 2982 	ld	a,l
   0DD7 D6 01         [ 7] 2983 	sub	a, #0x01
   0DD9 30 05         [12] 2984 	jr	NC,00126$
                           2985 ;ramon.c:627: aPoli3.nX = 19;
   0DDB 21rA4r01      [10] 2986 	ld	hl,#_aPoli3
   0DDE 36 13         [10] 2987 	ld	(hl),#0x13
   0DE0                    2988 00126$:
                           2989 ;ramon.c:630: if(aPoli3.nX > 19)
   0DE0 21rA4r01      [10] 2990 	ld	hl, #_aPoli3 + 0
   0DE3 6E            [ 7] 2991 	ld	l,(hl)
   0DE4 3E 13         [ 7] 2992 	ld	a,#0x13
   0DE6 95            [ 4] 2993 	sub	a, l
   0DE7 30 05         [12] 2994 	jr	NC,00128$
                           2995 ;ramon.c:632: aPoli3.nX = 0;
   0DE9 21rA4r01      [10] 2996 	ld	hl,#_aPoli3
   0DEC 36 00         [10] 2997 	ld	(hl),#0x00
   0DEE                    2998 00128$:
                           2999 ;ramon.c:636: if(aPoli3.frame == 0) {
   0DEE 21rA7r01      [10] 3000 	ld	hl, #(_aPoli3 + 0x0003) + 0
   0DF1 4E            [ 7] 3001 	ld	c,(hl)
                           3002 ;ramon.c:616: aBackgroundTiles[aPoli3.nX][aPoli3.nY] = TileType_None;
   0DF2 21rA4r01      [10] 3003 	ld	hl, #_aPoli3 + 0
   0DF5 46            [ 7] 3004 	ld	b,(hl)
   0DF6 21rA5r01      [10] 3005 	ld	hl, #(_aPoli3 + 0x0001) + 0
   0DF9 5E            [ 7] 3006 	ld	e,(hl)
                           3007 ;ramon.c:637: aBackgroundTiles[aPoli3.nX][aPoli3.nY] = TileType_Poli_f1;
   0DFA D5            [11] 3008 	push	de
   0DFB 58            [ 4] 3009 	ld	e,b
   0DFC 16 00         [ 7] 3010 	ld	d,#0x00
   0DFE 6B            [ 4] 3011 	ld	l, e
   0DFF 62            [ 4] 3012 	ld	h, d
   0E00 29            [11] 3013 	add	hl, hl
   0E01 29            [11] 3014 	add	hl, hl
   0E02 19            [11] 3015 	add	hl, de
   0E03 29            [11] 3016 	add	hl, hl
   0E04 29            [11] 3017 	add	hl, hl
   0E05 D1            [10] 3018 	pop	de
   0E06 45            [ 4] 3019 	ld	b,l
   0E07 54            [ 4] 3020 	ld	d,h
   0E08 3Er02         [ 7] 3021 	ld	a,#<(_aBackgroundTiles)
   0E0A 80            [ 4] 3022 	add	a, b
   0E0B 47            [ 4] 3023 	ld	b,a
   0E0C 3Es00         [ 7] 3024 	ld	a,#>(_aBackgroundTiles)
   0E0E 8A            [ 4] 3025 	adc	a, d
   0E0F 57            [ 4] 3026 	ld	d,a
   0E10 78            [ 4] 3027 	ld	a,b
   0E11 83            [ 4] 3028 	add	a, e
   0E12 5F            [ 4] 3029 	ld	e,a
   0E13 7A            [ 4] 3030 	ld	a,d
   0E14 CE 00         [ 7] 3031 	adc	a, #0x00
   0E16 57            [ 4] 3032 	ld	d,a
                           3033 ;ramon.c:636: if(aPoli3.frame == 0) {
   0E17 79            [ 4] 3034 	ld	a,c
   0E18 B7            [ 4] 3035 	or	a, a
   0E19 20 0A         [12] 3036 	jr	NZ,00130$
                           3037 ;ramon.c:637: aBackgroundTiles[aPoli3.nX][aPoli3.nY] = TileType_Poli_f1;
   0E1B 3E 0A         [ 7] 3038 	ld	a,#0x0A
   0E1D 12            [ 7] 3039 	ld	(de),a
                           3040 ;ramon.c:638: aPoli3.frame = 1;
   0E1E 21rA7r01      [10] 3041 	ld	hl,#(_aPoli3 + 0x0003)
   0E21 36 01         [10] 3042 	ld	(hl),#0x01
   0E23 18 08         [12] 3043 	jr	00131$
   0E25                    3044 00130$:
                           3045 ;ramon.c:641: aBackgroundTiles[aPoli3.nX][aPoli3.nY] = TileType_Poli_f2;
   0E25 3E 0B         [ 7] 3046 	ld	a,#0x0B
   0E27 12            [ 7] 3047 	ld	(de),a
                           3048 ;ramon.c:642: aPoli3.frame = 0;
   0E28 21rA7r01      [10] 3049 	ld	hl,#(_aPoli3 + 0x0003)
   0E2B 36 00         [10] 3050 	ld	(hl),#0x00
   0E2D                    3051 00131$:
                           3052 ;ramon.c:644: DrawTile(aPoli3.nX, aPoli3.nY);
   0E2D 21rA5r01      [10] 3053 	ld	hl, #(_aPoli3 + 0x0001) + 0
   0E30 4E            [ 7] 3054 	ld	c,(hl)
   0E31 21rA4r01      [10] 3055 	ld	hl, #_aPoli3 + 0
   0E34 46            [ 7] 3056 	ld	b,(hl)
   0E35 79            [ 4] 3057 	ld	a,c
   0E36 F5            [11] 3058 	push	af
   0E37 33            [ 6] 3059 	inc	sp
   0E38 C5            [11] 3060 	push	bc
   0E39 33            [ 6] 3061 	inc	sp
   0E3A CDrD9r03      [17] 3062 	call	_DrawTile
   0E3D F1            [10] 3063 	pop	af
   0E3E                    3064 00133$:
                           3065 ;ramon.c:646: aPoli3.timer++;
   0E3E 3ArA6r01      [13] 3066 	ld	a,(#(_aPoli3 + 0x0002) + 0)
   0E41 3C            [ 4] 3067 	inc	a
   0E42 32rA6r01      [13] 3068 	ld	(#(_aPoli3 + 0x0002)),a
   0E45 C9            [10] 3069 	ret
   0E46                    3070 _MovePolicias_end::
                           3071 ;ramon.c:650: void MoveCamion(void)
                           3072 ;	---------------------------------
                           3073 ; Function MoveCamion
                           3074 ; ---------------------------------
   0E46                    3075 _MoveCamion_start::
   0E46                    3076 _MoveCamion:
   0E46 DD E5         [15] 3077 	push	ix
   0E48 DD 21 00 00   [14] 3078 	ld	ix,#0
   0E4C DD 39         [15] 3079 	add	ix,sp
   0E4E 21 FB FF      [10] 3080 	ld	hl,#-5
   0E51 39            [11] 3081 	add	hl,sp
   0E52 F9            [ 6] 3082 	ld	sp,hl
                           3083 ;ramon.c:655: if(globalTimer % 3 == 0)
   0E53 3E 03         [ 7] 3084 	ld	a,#0x03
   0E55 F5            [11] 3085 	push	af
   0E56 33            [ 6] 3086 	inc	sp
   0E57 3Ar00r00      [13] 3087 	ld	a,(_globalTimer)
   0E5A F5            [11] 3088 	push	af
   0E5B 33            [ 6] 3089 	inc	sp
   0E5C CDr00r00      [17] 3090 	call	__moduchar_rrx_s
   0E5F F1            [10] 3091 	pop	af
   0E60 7D            [ 4] 3092 	ld	a,l
   0E61 B7            [ 4] 3093 	or	a, a
   0E62 C2r36r0F      [10] 3094 	jp	NZ,00112$
                           3095 ;ramon.c:657: for (nX = 0; nX < TAM_CAMION; nX++)
   0E65 DD 36 FB 00   [19] 3096 	ld	-5 (ix),#0x00
   0E69                    3097 00108$:
                           3098 ;ramon.c:659: aBackgroundTiles[aCamion[nX].nX][aCamion[nX].nY] = TileType_Carretera;
   0E69 DD 6E FB      [19] 3099 	ld	l,-5 (ix)
   0E6C 26 00         [ 7] 3100 	ld	h,#0x00
   0E6E 29            [11] 3101 	add	hl, hl
   0E6F 3ErA8         [ 7] 3102 	ld	a,#<(_aCamion)
   0E71 85            [ 4] 3103 	add	a, l
   0E72 5F            [ 4] 3104 	ld	e,a
   0E73 3Es01         [ 7] 3105 	ld	a,#>(_aCamion)
   0E75 8C            [ 4] 3106 	adc	a, h
   0E76 57            [ 4] 3107 	ld	d,a
   0E77 1A            [ 7] 3108 	ld	a,(de)
   0E78 4F            [ 4] 3109 	ld	c, a
   0E79 06 00         [ 7] 3110 	ld	b,#0x00
   0E7B 69            [ 4] 3111 	ld	l, c
   0E7C 60            [ 4] 3112 	ld	h, b
   0E7D 29            [11] 3113 	add	hl, hl
   0E7E 29            [11] 3114 	add	hl, hl
   0E7F 09            [11] 3115 	add	hl, bc
   0E80 29            [11] 3116 	add	hl, hl
   0E81 29            [11] 3117 	add	hl, hl
   0E82 01r02r00      [10] 3118 	ld	bc,#_aBackgroundTiles
   0E85 09            [11] 3119 	add	hl,bc
   0E86 4D            [ 4] 3120 	ld	c,l
   0E87 44            [ 4] 3121 	ld	b,h
   0E88 21 01 00      [10] 3122 	ld	hl,#0x0001
   0E8B 19            [11] 3123 	add	hl,de
   0E8C DD 75 FC      [19] 3124 	ld	-4 (ix),l
   0E8F DD 74 FD      [19] 3125 	ld	-3 (ix),h
   0E92 DD 6E FC      [19] 3126 	ld	l,-4 (ix)
   0E95 DD 66 FD      [19] 3127 	ld	h,-3 (ix)
   0E98 6E            [ 7] 3128 	ld	l,(hl)
   0E99 79            [ 4] 3129 	ld	a,c
   0E9A 85            [ 4] 3130 	add	a, l
   0E9B 4F            [ 4] 3131 	ld	c,a
   0E9C 78            [ 4] 3132 	ld	a,b
   0E9D CE 00         [ 7] 3133 	adc	a, #0x00
   0E9F 47            [ 4] 3134 	ld	b,a
   0EA0 3E 0D         [ 7] 3135 	ld	a,#0x0D
   0EA2 02            [ 7] 3136 	ld	(bc),a
                           3137 ;ramon.c:660: DrawTile(aCamion[nX].nX, aCamion[nX].nY);
   0EA3 DD 6E FC      [19] 3138 	ld	l,-4 (ix)
   0EA6 DD 66 FD      [19] 3139 	ld	h,-3 (ix)
   0EA9 4E            [ 7] 3140 	ld	c,(hl)
   0EAA 1A            [ 7] 3141 	ld	a,(de)
   0EAB 47            [ 4] 3142 	ld	b,a
   0EAC D5            [11] 3143 	push	de
   0EAD 79            [ 4] 3144 	ld	a,c
   0EAE F5            [11] 3145 	push	af
   0EAF 33            [ 6] 3146 	inc	sp
   0EB0 C5            [11] 3147 	push	bc
   0EB1 33            [ 6] 3148 	inc	sp
   0EB2 CDrD9r03      [17] 3149 	call	_DrawTile
   0EB5 F1            [10] 3150 	pop	af
   0EB6 D1            [10] 3151 	pop	de
   0EB7 1A            [ 7] 3152 	ld	a,(de)
                           3153 ;ramon.c:662: if(aCamion[nX].nX < 1)
   0EB8 4F            [ 4] 3154 	ld	c,a
   0EB9 D6 01         [ 7] 3155 	sub	a, #0x01
   0EBB 30 05         [12] 3156 	jr	NC,00102$
                           3157 ;ramon.c:664: aCamion[nX].nX = 19;
   0EBD 3E 13         [ 7] 3158 	ld	a,#0x13
   0EBF 12            [ 7] 3159 	ld	(de),a
   0EC0 18 04         [12] 3160 	jr	00109$
   0EC2                    3161 00102$:
                           3162 ;ramon.c:666: aCamion[nX].nX--;
   0EC2 79            [ 4] 3163 	ld	a,c
   0EC3 C6 FF         [ 7] 3164 	add	a,#0xFF
   0EC5 12            [ 7] 3165 	ld	(de),a
   0EC6                    3166 00109$:
                           3167 ;ramon.c:657: for (nX = 0; nX < TAM_CAMION; nX++)
   0EC6 DD 34 FB      [23] 3168 	inc	-5 (ix)
   0EC9 DD 7E FB      [19] 3169 	ld	a,-5 (ix)
   0ECC D6 06         [ 7] 3170 	sub	a, #0x06
   0ECE 38 99         [12] 3171 	jr	C,00108$
                           3172 ;ramon.c:670: for (nX = 0; nX < TAM_CAMION; nX++)
   0ED0 DD 36 FB 00   [19] 3173 	ld	-5 (ix),#0x00
   0ED4                    3174 00110$:
                           3175 ;ramon.c:672: aBackgroundTiles[aCamion[nX].nX][aCamion[nX].nY] = 1+nX;
   0ED4 DD 6E FB      [19] 3176 	ld	l,-5 (ix)
   0ED7 26 00         [ 7] 3177 	ld	h,#0x00
   0ED9 29            [11] 3178 	add	hl, hl
   0EDA 3ErA8         [ 7] 3179 	ld	a,#<(_aCamion)
   0EDC 85            [ 4] 3180 	add	a, l
   0EDD 5F            [ 4] 3181 	ld	e,a
   0EDE 3Es01         [ 7] 3182 	ld	a,#>(_aCamion)
   0EE0 8C            [ 4] 3183 	adc	a, h
   0EE1 57            [ 4] 3184 	ld	d,a
   0EE2 1A            [ 7] 3185 	ld	a,(de)
   0EE3 4F            [ 4] 3186 	ld	c, a
   0EE4 06 00         [ 7] 3187 	ld	b,#0x00
   0EE6 69            [ 4] 3188 	ld	l, c
   0EE7 60            [ 4] 3189 	ld	h, b
   0EE8 29            [11] 3190 	add	hl, hl
   0EE9 29            [11] 3191 	add	hl, hl
   0EEA 09            [11] 3192 	add	hl, bc
   0EEB 29            [11] 3193 	add	hl, hl
   0EEC 29            [11] 3194 	add	hl, hl
   0EED 01r02r00      [10] 3195 	ld	bc,#_aBackgroundTiles
   0EF0 09            [11] 3196 	add	hl,bc
   0EF1 4D            [ 4] 3197 	ld	c,l
   0EF2 44            [ 4] 3198 	ld	b,h
   0EF3 21 01 00      [10] 3199 	ld	hl,#0x0001
   0EF6 19            [11] 3200 	add	hl,de
   0EF7 DD 75 FE      [19] 3201 	ld	-2 (ix),l
   0EFA DD 74 FF      [19] 3202 	ld	-1 (ix),h
   0EFD DD 6E FE      [19] 3203 	ld	l,-2 (ix)
   0F00 DD 66 FF      [19] 3204 	ld	h,-1 (ix)
   0F03 6E            [ 7] 3205 	ld	l,(hl)
   0F04 79            [ 4] 3206 	ld	a,c
   0F05 85            [ 4] 3207 	add	a, l
   0F06 DD 77 FC      [19] 3208 	ld	-4 (ix),a
   0F09 78            [ 4] 3209 	ld	a,b
   0F0A CE 00         [ 7] 3210 	adc	a, #0x00
   0F0C DD 77 FD      [19] 3211 	ld	-3 (ix),a
   0F0F DD 4E FB      [19] 3212 	ld	c,-5 (ix)
   0F12 0C            [ 4] 3213 	inc	c
   0F13 DD 6E FC      [19] 3214 	ld	l,-4 (ix)
   0F16 DD 66 FD      [19] 3215 	ld	h,-3 (ix)
   0F19 71            [ 7] 3216 	ld	(hl),c
                           3217 ;ramon.c:673: DrawTile(aCamion[nX].nX, aCamion[nX].nY);
   0F1A DD 6E FE      [19] 3218 	ld	l,-2 (ix)
   0F1D DD 66 FF      [19] 3219 	ld	h,-1 (ix)
   0F20 46            [ 7] 3220 	ld	b,(hl)
   0F21 1A            [ 7] 3221 	ld	a,(de)
   0F22 5F            [ 4] 3222 	ld	e,a
   0F23 C5            [11] 3223 	push	bc
   0F24 C5            [11] 3224 	push	bc
   0F25 33            [ 6] 3225 	inc	sp
   0F26 7B            [ 4] 3226 	ld	a,e
   0F27 F5            [11] 3227 	push	af
   0F28 33            [ 6] 3228 	inc	sp
   0F29 CDrD9r03      [17] 3229 	call	_DrawTile
   0F2C F1            [10] 3230 	pop	af
   0F2D C1            [10] 3231 	pop	bc
                           3232 ;ramon.c:670: for (nX = 0; nX < TAM_CAMION; nX++)
   0F2E DD 71 FB      [19] 3233 	ld	-5 (ix), c
   0F31 79            [ 4] 3234 	ld	a, c
   0F32 D6 06         [ 7] 3235 	sub	a, #0x06
   0F34 38 9E         [12] 3236 	jr	C,00110$
   0F36                    3237 00112$:
   0F36 DD F9         [10] 3238 	ld	sp,ix
   0F38 DD E1         [14] 3239 	pop	ix
   0F3A C9            [10] 3240 	ret
   0F3B                    3241 _MoveCamion_end::
                           3242 ;ramon.c:679: void GameOver(void)
                           3243 ;	---------------------------------
                           3244 ; Function GameOver
                           3245 ; ---------------------------------
   0F3B                    3246 _GameOver_start::
   0F3B                    3247 _GameOver:
                           3248 ;ramon.c:681: SetMode(1);
   0F3B 3E 01         [ 7] 3249 	ld	a,#0x01
   0F3D F5            [11] 3250 	push	af
   0F3E 33            [ 6] 3251 	inc	sp
   0F3F CDr69r05      [17] 3252 	call	_SetMode
   0F42 33            [ 6] 3253 	inc	sp
                           3254 ;ramon.c:683: SetCursor(3, 7);
   0F43 21 03 07      [10] 3255 	ld	hl,#0x0703
   0F46 E5            [11] 3256 	push	hl
   0F47 CDr7Ar05      [17] 3257 	call	_SetCursor
                           3258 ;ramon.c:684: printf("Oh, no! La policia ha interceptado");
   0F4A 21r9Cr0F      [10] 3259 	ld	hl, #__str_0
   0F4D E3            [19] 3260 	ex	(sp),hl
   0F4E CDr00r00      [17] 3261 	call	_printf
                           3262 ;ramon.c:685: SetCursor(3, 9);
   0F51 21 03 09      [10] 3263 	ld	hl, #0x0903
   0F54 E3            [19] 3264 	ex	(sp),hl
   0F55 CDr7Ar05      [17] 3265 	call	_SetCursor
                           3266 ;ramon.c:686: printf("parte del dinero.");
   0F58 21rBFr0F      [10] 3267 	ld	hl, #__str_1
   0F5B E3            [19] 3268 	ex	(sp),hl
   0F5C CDr00r00      [17] 3269 	call	_printf
                           3270 ;ramon.c:687: SetCursor(3, 11);
   0F5F 21 03 0B      [10] 3271 	ld	hl, #0x0B03
   0F62 E3            [19] 3272 	ex	(sp),hl
   0F63 CDr7Ar05      [17] 3273 	call	_SetCursor
                           3274 ;ramon.c:688: printf("Tu jefe no va a estar contento.");
   0F66 21rD1r0F      [10] 3275 	ld	hl, #__str_2
   0F69 E3            [19] 3276 	ex	(sp),hl
   0F6A CDr00r00      [17] 3277 	call	_printf
                           3278 ;ramon.c:689: SetCursor(3, 15);
   0F6D 21 03 0F      [10] 3279 	ld	hl, #0x0F03
   0F70 E3            [19] 3280 	ex	(sp),hl
   0F71 CDr7Ar05      [17] 3281 	call	_SetCursor
   0F74 F1            [10] 3282 	pop	af
                           3283 ;ramon.c:690: printf("Has conseguido pasar %i bolsas", aPlayer.puntos);
   0F75 21r94r01      [10] 3284 	ld	hl, #_aPlayer + 2
   0F78 4E            [ 7] 3285 	ld	c, (hl)
   0F79 06 00         [ 7] 3286 	ld	b,#0x00
   0F7B C5            [11] 3287 	push	bc
   0F7C 21rF1r0F      [10] 3288 	ld	hl,#__str_3
   0F7F E5            [11] 3289 	push	hl
   0F80 CDr00r00      [17] 3290 	call	_printf
   0F83 F1            [10] 3291 	pop	af
                           3292 ;ramon.c:692: SetCursor(6, 20);
   0F84 21 06 14      [10] 3293 	ld	hl, #0x1406
   0F87 E3            [19] 3294 	ex	(sp),hl
   0F88 CDr7Ar05      [17] 3295 	call	_SetCursor
                           3296 ;ramon.c:693: printf("Pulsa Enter para jugar de nuevo");
   0F8B 21r10r10      [10] 3297 	ld	hl, #__str_4
   0F8E E3            [19] 3298 	ex	(sp),hl
   0F8F CDr00r00      [17] 3299 	call	_printf
   0F92 F1            [10] 3300 	pop	af
                           3301 ;ramon.c:695: while(GetChar() != 13) {}
   0F93                    3302 00101$:
   0F93 CDr52r03      [17] 3303 	call	_GetChar
   0F96 7D            [ 4] 3304 	ld	a,l
   0F97 D6 0D         [ 7] 3305 	sub	a, #0x0D
   0F99 20 F8         [12] 3306 	jr	NZ,00101$
   0F9B C9            [10] 3307 	ret
   0F9C                    3308 _GameOver_end::
   0F9C                    3309 __str_0:
   0F9C 4F 68 2C 20 6E 6F  3310 	.ascii "Oh, no! La policia ha interceptado"
        21 20 4C 61 20 70
        6F 6C 69 63 69 61
        20 68 61 20 69 6E
        74 65 72 63 65 70
        74 61 64 6F
   0FBE 00                 3311 	.db 0x00
   0FBF                    3312 __str_1:
   0FBF 70 61 72 74 65 20  3313 	.ascii "parte del dinero."
        64 65 6C 20 64 69
        6E 65 72 6F 2E
   0FD0 00                 3314 	.db 0x00
   0FD1                    3315 __str_2:
   0FD1 54 75 20 6A 65 66  3316 	.ascii "Tu jefe no va a estar contento."
        65 20 6E 6F 20 76
        61 20 61 20 65 73
        74 61 72 20 63 6F
        6E 74 65 6E 74 6F
        2E
   0FF0 00                 3317 	.db 0x00
   0FF1                    3318 __str_3:
   0FF1 48 61 73 20 63 6F  3319 	.ascii "Has conseguido pasar %i bolsas"
        6E 73 65 67 75 69
        64 6F 20 70 61 73
        61 72 20 25 69 20
        62 6F 6C 73 61 73
   100F 00                 3320 	.db 0x00
   1010                    3321 __str_4:
   1010 50 75 6C 73 61 20  3322 	.ascii "Pulsa Enter para jugar de nuevo"
        45 6E 74 65 72 20
        70 61 72 61 20 6A
        75 67 61 72 20 64
        65 20 6E 75 65 76
        6F
   102F 00                 3323 	.db 0x00
                           3324 ;ramon.c:699: void Game()
                           3325 ;	---------------------------------
                           3326 ; Function Game
                           3327 ; ---------------------------------
   1030                    3328 _Game_start::
   1030                    3329 _Game:
                           3330 ;ramon.c:701: unsigned int nLastMoveTime = GetTime();
   1030 CDr00r00      [17] 3331 	call	_GetTime
                           3332 ;ramon.c:704: InitMode0();
   1033 E5            [11] 3333 	push	hl
   1034 CDr8Er05      [17] 3334 	call	_InitMode0
   1037 CDrCBr05      [17] 3335 	call	_InitGame
   103A C1            [10] 3336 	pop	bc
                           3337 ;ramon.c:707: while(1)
   103B                    3338 00108$:
                           3339 ;ramon.c:709: if(GetTime() - nLastMoveTime < nGameSpeed)
   103B C5            [11] 3340 	push	bc
   103C CDr00r00      [17] 3341 	call	_GetTime
   103F EB            [ 4] 3342 	ex	de,hl
   1040 C1            [10] 3343 	pop	bc
   1041 7B            [ 4] 3344 	ld	a,e
   1042 91            [ 4] 3345 	sub	a, c
   1043 5F            [ 4] 3346 	ld	e,a
   1044 7A            [ 4] 3347 	ld	a,d
   1045 98            [ 4] 3348 	sbc	a, b
   1046 57            [ 4] 3349 	ld	d,a
   1047 7B            [ 4] 3350 	ld	a,e
   1048 D6 32         [ 7] 3351 	sub	a, #0x32
   104A 7A            [ 4] 3352 	ld	a,d
   104B DE 00         [ 7] 3353 	sbc	a, #0x00
   104D 38 EC         [12] 3354 	jr	C,00108$
                           3355 ;ramon.c:711: nLastMoveTime = GetTime();
   104F CDr00r00      [17] 3356 	call	_GetTime
                           3357 ;ramon.c:713: MovePlayer();
   1052 E5            [11] 3358 	push	hl
   1053 CDr2Ar09      [17] 3359 	call	_MovePlayer
   1056 CDr0Dr0C      [17] 3360 	call	_MovePolicias
   1059 CDr46r0E      [17] 3361 	call	_MoveCamion
   105C C1            [10] 3362 	pop	bc
                           3363 ;ramon.c:717: if(aBolsa.activo == 1)
   105D 21r9Ar01      [10] 3364 	ld	hl, #_aBolsa + 2
   1060 6E            [ 7] 3365 	ld	l,(hl)
   1061 2D            [ 4] 3366 	dec	l
   1062 20 0A         [12] 3367 	jr	NZ,00106$
                           3368 ;ramon.c:719: if(!MoveBolsa())
   1064 C5            [11] 3369 	push	bc
   1065 CDrDEr0A      [17] 3370 	call	_MoveBolsa
   1068 C1            [10] 3371 	pop	bc
   1069 7D            [ 4] 3372 	ld	a,l
   106A B7            [ 4] 3373 	or	a, a
   106B CAr3Br0F      [10] 3374 	jp	Z,_GameOver
                           3375 ;ramon.c:720: break;
   106E                    3376 00106$:
                           3377 ;ramon.c:723: globalTimer++; // Una vez movido todo, actualizamos temporizador global
   106E 21r00r00      [10] 3378 	ld	hl, #_globalTimer+0
   1071 34            [11] 3379 	inc	(hl)
                           3380 ;ramon.c:725: SetCursor(2,1);
   1072 C5            [11] 3381 	push	bc
   1073 21 02 01      [10] 3382 	ld	hl,#0x0102
   1076 E5            [11] 3383 	push	hl
   1077 CDr7Ar05      [17] 3384 	call	_SetCursor
   107A F1            [10] 3385 	pop	af
   107B C1            [10] 3386 	pop	bc
                           3387 ;ramon.c:726: printf("Bolsas salvadas: %d" , aPlayer.puntos);
   107C 21r94r01      [10] 3388 	ld	hl, #_aPlayer + 2
   107F 6E            [ 7] 3389 	ld	l,(hl)
   1080 26 00         [ 7] 3390 	ld	h,#0x00
   1082 C5            [11] 3391 	push	bc
   1083 E5            [11] 3392 	push	hl
   1084 21rA1r10      [10] 3393 	ld	hl,#__str_5
   1087 E5            [11] 3394 	push	hl
   1088 CDr00r00      [17] 3395 	call	_printf
   108B F1            [10] 3396 	pop	af
   108C 21 08 02      [10] 3397 	ld	hl, #0x0208
   108F E3            [19] 3398 	ex	(sp),hl
   1090 CDr7Ar05      [17] 3399 	call	_SetCursor
   1093 21rB5r10      [10] 3400 	ld	hl, #__str_6
   1096 E3            [19] 3401 	ex	(sp),hl
   1097 CDr00r00      [17] 3402 	call	_printf
   109A F1            [10] 3403 	pop	af
   109B C1            [10] 3404 	pop	bc
   109C 18 9D         [12] 3405 	jr	00108$
                           3406 ;ramon.c:733: GameOver();
   109E C3r3Br0F      [10] 3407 	jp	_GameOver
   10A1                    3408 _Game_end::
   10A1                    3409 __str_5:
   10A1 42 6F 6C 73 61 73  3410 	.ascii "Bolsas salvadas: %d"
        20 73 61 6C 76 61
        64 61 73 3A 20 25
        64
   10B4 00                 3411 	.db 0x00
   10B5                    3412 __str_6:
   10B5 42 41 4E 43 4F     3413 	.ascii "BANCO"
   10BA 00                 3414 	.db 0x00
                           3415 ;ramon.c:738: void ShowMenu()
                           3416 ;	---------------------------------
                           3417 ; Function ShowMenu
                           3418 ; ---------------------------------
   10BB                    3419 _ShowMenu_start::
   10BB                    3420 _ShowMenu:
                           3421 ;ramon.c:740: InitMode1();
   10BB CDr9Cr05      [17] 3422 	call	_InitMode1
                           3423 ;ramon.c:742: initPaleta();
   10BE CDrABr05      [17] 3424 	call	_initPaleta
                           3425 ;ramon.c:744: SetCursor(12, 5);
   10C1 21 0C 05      [10] 3426 	ld	hl,#0x050C
   10C4 E5            [11] 3427 	push	hl
   10C5 CDr7Ar05      [17] 3428 	call	_SetCursor
                           3429 ;ramon.c:745: printf("RAMON EL LADRON");
   10C8 21r11r11      [10] 3430 	ld	hl, #__str_7
   10CB E3            [19] 3431 	ex	(sp),hl
   10CC CDr00r00      [17] 3432 	call	_printf
                           3433 ;ramon.c:747: SetCursor(3, 8);
   10CF 21 03 08      [10] 3434 	ld	hl, #0x0803
   10D2 E3            [19] 3435 	ex	(sp),hl
   10D3 CDr7Ar05      [17] 3436 	call	_SetCursor
                           3437 ;ramon.c:748: printf("Usa los cursores para moverte");
   10D6 21r21r11      [10] 3438 	ld	hl, #__str_8
   10D9 E3            [19] 3439 	ex	(sp),hl
   10DA CDr00r00      [17] 3440 	call	_printf
                           3441 ;ramon.c:749: SetCursor(3, 10);
   10DD 21 03 0A      [10] 3442 	ld	hl, #0x0A03
   10E0 E3            [19] 3443 	ex	(sp),hl
   10E1 CDr7Ar05      [17] 3444 	call	_SetCursor
                           3445 ;ramon.c:750: printf("Usa espacio para lanzar el dinero");
   10E4 21r3Fr11      [10] 3446 	ld	hl, #__str_9
   10E7 E3            [19] 3447 	ex	(sp),hl
   10E8 CDr00r00      [17] 3448 	call	_printf
                           3449 ;ramon.c:752: SetCursor(8, 16);
   10EB 21 08 10      [10] 3450 	ld	hl, #0x1008
   10EE E3            [19] 3451 	ex	(sp),hl
   10EF CDr7Ar05      [17] 3452 	call	_SetCursor
                           3453 ;ramon.c:753: printf("Pulsa Enter para comenzar");
   10F2 21r61r11      [10] 3454 	ld	hl, #__str_10
   10F5 E3            [19] 3455 	ex	(sp),hl
   10F6 CDr00r00      [17] 3456 	call	_printf
                           3457 ;ramon.c:755: SetCursor(3, 24);
   10F9 21 03 18      [10] 3458 	ld	hl, #0x1803
   10FC E3            [19] 3459 	ex	(sp),hl
   10FD CDr7Ar05      [17] 3460 	call	_SetCursor
                           3461 ;ramon.c:756: printf("Code Monkeys. 2013");
   1100 21r7Br11      [10] 3462 	ld	hl, #__str_11
   1103 E3            [19] 3463 	ex	(sp),hl
   1104 CDr00r00      [17] 3464 	call	_printf
   1107 F1            [10] 3465 	pop	af
                           3466 ;ramon.c:758: while(GetChar() != 13) {}
   1108                    3467 00101$:
   1108 CDr52r03      [17] 3468 	call	_GetChar
   110B 7D            [ 4] 3469 	ld	a,l
   110C D6 0D         [ 7] 3470 	sub	a, #0x0D
   110E 20 F8         [12] 3471 	jr	NZ,00101$
   1110 C9            [10] 3472 	ret
   1111                    3473 _ShowMenu_end::
   1111                    3474 __str_7:
   1111 52 41 4D 4F 4E 20  3475 	.ascii "RAMON EL LADRON"
        45 4C 20 4C 41 44
        52 4F 4E
   1120 00                 3476 	.db 0x00
   1121                    3477 __str_8:
   1121 55 73 61 20 6C 6F  3478 	.ascii "Usa los cursores para moverte"
        73 20 63 75 72 73
        6F 72 65 73 20 70
        61 72 61 20 6D 6F
        76 65 72 74 65
   113E 00                 3479 	.db 0x00
   113F                    3480 __str_9:
   113F 55 73 61 20 65 73  3481 	.ascii "Usa espacio para lanzar el dinero"
        70 61 63 69 6F 20
        70 61 72 61 20 6C
        61 6E 7A 61 72 20
        65 6C 20 64 69 6E
        65 72 6F
   1160 00                 3482 	.db 0x00
   1161                    3483 __str_10:
   1161 50 75 6C 73 61 20  3484 	.ascii "Pulsa Enter para comenzar"
        45 6E 74 65 72 20
        70 61 72 61 20 63
        6F 6D 65 6E 7A 61
        72
   117A 00                 3485 	.db 0x00
   117B                    3486 __str_11:
   117B 43 6F 64 65 20 4D  3487 	.ascii "Code Monkeys. 2013"
        6F 6E 6B 65 79 73
        2E 20 32 30 31 33
   118D 00                 3488 	.db 0x00
                           3489 ;ramon.c:761: void main()
                           3490 ;	---------------------------------
                           3491 ; Function main
                           3492 ; ---------------------------------
   118E                    3493 _main_start::
   118E                    3494 _main:
                           3495 ;ramon.c:763: ShowMenu();
   118E CDrBBr10      [17] 3496 	call	_ShowMenu
                           3497 ;ramon.c:765: while(1)
   1191                    3498 00102$:
                           3499 ;ramon.c:767: Game();
   1191 CDr30r10      [17] 3500 	call	_Game
   1194 18 FB         [12] 3501 	jr	00102$
   1196                    3502 _main_end::
                           3503 	.area _CODE
                           3504 	.area _INITIALIZER
                           3505 	.area _CABS (ABS)
